(lp0
(lp1
S'RYT'
p2
aS'PDP'
p3
aS'RWL'
p4
aa(lp5
(lp6
(lp7
S'2015-02-02'
p8
aF86.599998
aF87.370003
aF85.209999
aF87.209999
aI152600
aF84.910309
aa(lp9
S'2015-02-03'
p10
aF87.699997
aF88.849998
aF87.639999
aF88.790001
aI105800
aF86.448647
aa(lp11
S'2015-02-04'
p12
aF88.599998
aF89.480003
aF88.599998
aF88.910004
aI93400
aF86.565485
aa(lp13
S'2015-02-05'
p14
aF89.110001
aF89.629997
aF88.860001
aF89.610001
aI93200
aF87.247023
aa(lp15
S'2015-02-06'
p16
aF89.980003
aF90.389999
aF89.220001
aF89.459999
aI112100
aF87.100977
aa(lp17
S'2015-02-09'
p18
aF89.449997
aF89.660004
aF89.050003
aF89.209999
aI77200
aF86.85757
aa(lp19
S'2015-02-10'
p20
aF89.559998
aF90.660004
aF89.190002
aF90.580002
aI173300
aF88.191446
aa(lp21
S'2015-02-11'
p22
aF90.800003
aF91.160004
aF90.43
aF90.93
aI1295300
aF88.532215
aa(lp23
S'2015-02-12'
p24
aF91.419998
aF92.410004
aF91.419998
aF92.379997
aI29900
aF89.943976
aa(lp25
S'2015-02-13'
p26
aF92.599998
aF93.139999
aF92.559998
aF93.110001
aI51800
aF90.65473
aa(lp27
S'2015-02-17'
p28
aF93.199997
aF93.290001
aF92.720001
aF93.150002
aI85800
aF90.693676
aa(lp29
S'2015-02-18'
p30
aF93.059998
aF93.349998
aF92.830002
aF93.18
aI86100
aF90.722884
aa(lp31
S'2015-02-19'
p32
aF92.989998
aF93.660004
aF92.93
aF93.559998
aI50000
aF91.09286
aa(lp33
S'2015-02-20'
p34
aF93.610001
aF94.440002
aF93.309998
aF94.419998
aI114800
aF91.930183
aa(lp35
S'2015-02-23'
p36
aF94.400002
aF94.400002
aF93.650002
aF93.93
aI63700
aF91.453106
aa(lp37
S'2015-02-24'
p38
aF94.029999
aF94.57
aF93.650002
aF94.370003
aI45500
aF91.881506
aa(lp39
S'2015-02-25'
p40
aF94.300003
aF94.589996
aF94.089996
aF94.300003
aI46500
aF91.813352
aa(lp41
S'2015-02-26'
p42
aF94.75
aF95.07
aF94.370003
aF94.739998
aI93800
aF92.241745
aa(lp43
S'2015-02-27'
p44
aF94.800003
aF95.0
aF94.349998
aF94.620003
aI47600
aF92.124914
aa(lp45
S'2015-03-02'
p46
aF94.779999
aF95.650002
aF94.620003
aF95.629997
aI216100
aF93.108275
aa(lp47
S'2015-03-03'
p48
aF95.25
aF95.25
aF94.099998
aF94.290001
aI228300
aF91.803614
aa(lp49
S'2015-03-04'
p50
aF94.269997
aF94.269997
aF93.32
aF93.93
aI104500
aF91.453106
aa(lp51
S'2015-03-05'
p52
aF94.160004
aF94.279999
aF93.760002
aF94.190002
aI104400
aF91.706252
aa(lp53
S'2015-03-06'
p54
aF93.989998
aF94.010002
aF92.75
aF92.879997
aI139100
aF90.430792
aa(lp55
S'2015-03-09'
p56
aF93.110001
aF93.480003
aF92.970001
aF93.360001
aI63200
aF90.898137
aa(lp57
S'2015-03-10'
p58
aF92.790001
aF92.790001
aF91.32
aF91.370003
aI80500
aF88.960615
aa(lp59
S'2015-03-11'
p60
aF91.5
aF91.870003
aF91.019997
aF91.120003
aI70000
aF88.717207
aa(lp61
S'2015-03-12'
p62
aF91.0
aF91.879997
aF90.980003
aF91.82
aI60500
aF89.398746
aa(lp63
S'2015-03-13'
p64
aF91.82
aF91.910004
aF90.769997
aF91.529999
aI94800
aF89.116392
aa(lp65
S'2015-03-16'
p66
aF91.75
aF92.870003
aF91.75
aF92.870003
aI45800
aF90.421061
aa(lp67
S'2015-03-17'
p68
aF92.669998
aF92.68
aF92.120003
aF92.489998
aI35600
aF90.051076
aa(lp69
S'2015-03-18'
p70
aF92.32
aF93.830002
aF91.720001
aF93.480003
aI60500
aF91.014976
aa(lp71
S'2015-03-19'
p72
aF93.589996
aF93.690002
aF93.349998
aF93.5
aI46500
aF91.034445
aa(lp73
S'2015-03-20'
p74
aF93.739998
aF94.370003
aF93.709999
aF94.160004
aI38100
aF91.87455
aa(lp75
S'2015-03-23'
p76
aF94.190002
aF94.32
aF93.910004
aF93.919998
aI68900
aF91.64037
aa(lp77
S'2015-03-24'
p78
aF93.980003
aF94.029999
aF93.339996
aF93.339996
aI37700
aF91.074446
aa(lp79
S'2015-03-25'
p80
aF93.32
aF93.32
aF90.650002
aF90.650002
aI110500
aF88.449742
aa(lp81
S'2015-03-26'
p82
aF89.980003
aF90.879997
aF89.300003
aF90.559998
aI103300
aF88.361923
aa(lp83
S'2015-03-27'
p84
aF90.660004
aF91.650002
aF90.269997
aF91.580002
aI156500
aF89.35717
aa(lp85
S'2015-03-30'
p86
aF92.190002
aF92.690002
aF92.0
aF92.589996
aI80600
aF90.34265
aa(lp87
S'2015-03-31'
p88
aF92.379997
aF92.550003
aF91.900002
aF91.900002
aI51100
aF89.669402
aa(lp89
S'2015-04-01'
p90
aF91.889999
aF91.889999
aF90.800003
aF91.330002
aI301900
aF89.113238
aa(lp91
S'2015-04-02'
p92
aF91.470001
aF92.040001
aF91.239998
aF91.580002
aI52500
aF89.35717
aa(lp93
S'2015-04-06'
p94
aF91.019997
aF92.080002
aF90.550003
aF91.889999
aI159300
aF89.659643
aa(lp95
S'2015-04-07'
p96
aF91.839996
aF92.650002
aF91.709999
aF92.0
aI43600
aF89.766974
aa(lp97
S'2015-04-08'
p98
aF92.190002
aF92.699997
aF92.059998
aF92.480003
aI49900
aF90.235326
aa(lp99
S'2015-04-09'
p100
aF92.440002
aF93.07
aF92.199997
aF93.0
aI46900
aF90.742702
aa(lp101
S'2015-04-10'
p102
aF92.93
aF93.379997
aF92.790001
aF93.379997
aI110300
aF91.113476
aa(lp103
S'2015-04-13'
p104
aF93.220001
aF93.620003
aF92.610001
aF92.720001
aI34300
aF90.469499
aa(lp105
S'2015-04-14'
p106
aF92.57
aF92.809998
aF91.959999
aF92.43
aI33800
aF90.186537
aa(lp107
S'2015-04-15'
p108
aF92.779999
aF93.620003
aF92.760002
aF93.370003
aI36200
aF91.103724
aa(lp109
S'2015-04-16'
p110
aF93.080002
aF93.269997
aF92.800003
aF93.089996
aI53000
aF90.830514
aa(lp111
S'2015-04-17'
p112
aF92.489998
aF92.489998
aF91.440002
aF91.800003
aI44400
aF89.571831
aa(lp113
S'2015-04-20'
p114
aF92.339996
aF92.860001
aF92.010002
aF92.75
aI50800
aF90.49877
aa(lp115
S'2015-04-21'
p116
aF93.260002
aF93.519997
aF93.019997
aF93.18
aI46100
aF90.918333
aa(lp117
S'2015-04-22'
p118
aF93.459999
aF94.089996
aF92.989998
aF94.0
aI82400
aF91.71843
aa(lp119
S'2015-04-23'
p120
aF93.669998
aF94.370003
aF93.349998
aF94.050003
aI38800
aF91.767219
aa(lp121
S'2015-04-24'
p122
aF94.139999
aF94.139999
aF93.18
aF93.510002
aI141100
aF91.240325
aa(lp123
S'2015-04-27'
p124
aF93.790001
aF94.040001
aF93.25
aF93.290001
aI57600
aF91.025664
aa(lp125
S'2015-04-28'
p126
aF93.5
aF93.800003
aF92.650002
aF93.650002
aI35700
aF91.376926
aa(lp127
S'2015-04-29'
p128
aF93.209999
aF93.559998
aF92.57
aF93.300003
aI113400
aF91.035423
aa(lp129
S'2015-04-30'
p130
aF93.209999
aF93.230003
aF91.940002
aF92.379997
aI71100
aF90.137748
aa(lp131
S'2015-05-01'
p132
aF92.989998
aF93.889999
aF92.989998
aF93.790001
aI270000
aF91.513528
aa(lp133
S'2015-05-04'
p134
aF94.07
aF94.260002
aF93.889999
aF94.029999
aI83100
aF91.7477
aa(lp135
S'2015-05-05'
p136
aF93.699997
aF93.75
aF92.470001
aF92.629997
aI65600
aF90.38168
aa(lp137
S'2015-05-06'
p138
aF92.900002
aF93.129997
aF91.809998
aF92.260002
aI41300
aF90.020665
aa(lp139
S'2015-05-07'
p140
aF92.419998
aF93.059998
aF92.290001
aF92.889999
aI34900
aF90.635371
aa(lp141
S'2015-05-08'
p142
aF93.57
aF94.040001
aF93.57
aF93.93
aI50200
aF91.650129
aa(lp143
S'2015-05-11'
p144
aF93.709999
aF93.980003
aF93.610001
aF93.629997
aI34000
aF91.357408
aa(lp145
S'2015-05-12'
p146
aF93.230003
aF93.410004
aF92.449997
aF93.089996
aI37900
aF90.830514
aa(lp147
S'2015-05-13'
p148
aF93.349998
aF93.839996
aF93.25
aF93.529999
aI36800
aF91.259836
aa(lp149
S'2015-05-14'
p150
aF94.019997
aF94.879997
aF94.0
aF94.860001
aI59900
aF92.557556
aa(lp151
S'2015-05-15'
p152
aF95.0
aF95.160004
aF94.330002
aF94.480003
aI32700
aF92.186782
aa(lp153
S'2015-05-18'
p154
aF94.480003
aF95.150002
aF94.410004
aF95.080002
aI43300
aF92.772218
aa(lp155
S'2015-05-19'
p156
aF95.300003
aF95.300003
aF94.699997
aF94.779999
aI54400
aF92.479496
aa(lp157
S'2015-05-20'
p158
aF95.199997
aF95.25
aF94.760002
aF94.830002
aI20000
aF92.528286
aa(lp159
S'2015-05-21'
p160
aF94.800003
aF95.059998
aF94.5
aF94.919998
aI33600
aF92.616098
aa(lp161
S'2015-05-22'
p162
aF94.809998
aF95.279999
aF94.809998
aF95.07
aI35300
aF92.762458
aa(lp163
S'2015-05-26'
p164
aF94.779999
aF94.779999
aF93.410004
aF93.75
aI50000
aF91.474498
aa(lp165
S'2015-05-27'
p166
aF93.980003
aF95.68
aF93.900002
aF95.610001
aI34200
aF93.289352
aa(lp167
S'2015-05-28'
p168
aF95.360001
aF95.519997
aF95.220001
aF95.459999
aI27800
aF93.142992
aa(lp169
S'2015-05-29'
p170
aF95.519997
aF95.620003
aF94.82
aF95.110001
aI290400
aF92.801488
aa(lp171
S'2015-06-01'
p172
aF95.349998
aF95.620003
aF94.730003
aF95.339996
aI44800
aF93.025902
aa(lp173
S'2015-06-02'
p174
aF95.220001
aF95.540001
aF94.559998
aF95.129997
aI24200
aF92.821
aa(lp175
S'2015-06-03'
p176
aF95.309998
aF95.690002
aF95.099998
aF95.199997
aI39500
aF92.8893
aa(lp177
S'2015-06-04'
p178
aF94.739998
aF95.07
aF94.029999
aF94.260002
aI137800
aF91.972121
aa(lp179
S'2015-06-05'
p180
aF94.040001
aF94.529999
aF93.540001
aF94.449997
aI33400
aF92.157504
aa(lp181
S'2015-06-08'
p182
aF94.559998
aF94.559998
aF93.07
aF93.18
aI35400
aF90.918333
aa(lp183
S'2015-06-09'
p184
aF93.099998
aF93.150002
aF92.32
aF93.0
aI54800
aF90.742702
aa(lp185
S'2015-06-10'
p186
aF93.300003
aF94.459999
aF93.300003
aF94.32
aI157400
aF92.030662
aa(lp187
S'2015-06-11'
p188
aF94.699997
aF94.800003
aF94.360001
aF94.419998
aI97700
aF92.128234
aa(lp189
S'2015-06-12'
p190
aF94.199997
aF94.199997
aF93.68
aF93.849998
aI26400
aF91.572069
aa(lp191
S'2015-06-15'
p192
aF93.220001
aF93.330002
aF92.410004
aF93.25
aI46700
aF90.986634
aa(lp193
S'2015-06-16'
p194
aF92.910004
aF93.860001
aF92.910004
aF93.779999
aI41900
aF91.503768
aa(lp195
S'2015-06-17'
p196
aF93.830002
aF94.220001
aF93.470001
aF93.980003
aI47900
aF91.698918
aa(lp197
S'2015-06-18'
p198
aF94.050003
aF95.029999
aF94.050003
aF94.989998
aI47100
aF92.684398
aa(lp199
S'2015-06-19'
p200
aF94.68
aF94.760002
aF94.089996
aF94.360001
aI29400
aF92.307774
aa(lp201
S'2015-06-22'
p202
aF94.730003
aF95.029999
aF94.580002
aF94.839996
aI26000
aF92.777331
aa(lp203
S'2015-06-23'
p204
aF95.029999
aF95.029999
aF94.410004
aF94.639999
aI104900
aF92.581683
aa(lp205
S'2015-06-24'
p206
aF94.510002
aF94.57
aF93.830002
aF93.839996
aI34900
aF91.79908
aa(lp207
S'2015-06-25'
p208
aF94.120003
aF94.120003
aF93.489998
aF93.610001
aI71700
aF91.574086
aa(lp209
S'2015-06-26'
p210
aF93.349998
aF93.349998
aF92.07
aF92.349998
aI75000
aF90.341488
aa(lp211
S'2015-06-29'
p212
aF91.440002
aF91.809998
aF90.150002
aF90.260002
aI76300
aF88.296946
aa(lp213
S'2015-06-30'
p214
aF90.879997
aF90.879997
aF89.959999
aF90.239998
aI106600
aF88.277377
aa(lp215
S'2015-07-01'
p216
aF90.849998
aF91.160004
aF90.379997
aF90.760002
aI185200
aF88.786072
aa(lp217
S'2015-07-02'
p218
aF90.849998
aF90.870003
aF90.32
aF90.739998
aI59900
aF88.766503
aa(lp219
S'2015-07-06'
p220
aF90.059998
aF90.57
aF89.580002
aF90.050003
aI46100
aF88.091515
aa(lp221
S'2015-07-07'
p222
aF90.120003
aF90.370003
aF88.260002
aF90.239998
aI65200
aF88.277377
aa(lp223
S'2015-07-08'
p224
aF89.510002
aF89.639999
aF88.620003
aF88.629997
aI42700
aF86.702392
aa(lp225
S'2015-07-09'
p226
aF89.690002
aF90.040001
aF88.57
aF88.580002
aI72800
aF86.653484
aa(lp227
S'2015-07-10'
p228
aF89.529999
aF89.949997
aF89.099998
aF89.800003
aI88700
aF87.846952
aa(lp229
S'2015-07-13'
p230
aF90.339996
aF90.779999
aF90.059998
aF90.690002
aI163000
aF88.717595
aa(lp231
S'2015-07-14'
p232
aF90.970001
aF91.309998
aF90.970001
aF91.129997
aI90900
aF89.14802
aa(lp233
S'2015-07-15'
p234
aF91.190002
aF91.209999
aF90.620003
aF90.809998
aI56100
aF88.83498
aa(lp235
S'2015-07-16'
p236
aF91.370003
aF91.459999
aF91.089996
aF91.449997
aI54800
aF89.46106
aa(lp237
S'2015-07-17'
p238
aF91.559998
aF91.589996
aF91.190002
aF91.519997
aI47600
aF89.529537
aa(lp239
S'2015-07-20'
p240
aF91.699997
aF91.889999
aF91.529999
aF91.580002
aI41800
aF89.588237
aa(lp241
S'2015-07-21'
p242
aF91.419998
aF91.870003
aF91.209999
aF91.330002
aI55900
aF89.343675
aa(lp243
S'2015-07-22'
p244
aF90.419998
aF90.800003
aF90.300003
aF90.599998
aI339400
aF88.629548
aa(lp245
S'2015-07-23'
p246
aF90.959999
aF91.790001
aF90.739998
aF90.889999
aI40100
aF88.913242
aa(lp247
S'2015-07-24'
p248
aF91.32
aF91.32
aF89.949997
aF90.18
aI688700
aF88.218684
aa(lp249
S'2015-07-27'
p250
aF89.629997
aF89.800003
aF89.110001
aF89.160004
aI109500
aF87.220872
aa(lp251
S'2015-07-28'
p252
aF89.629997
aF90.620003
aF88.910004
aF90.470001
aI80600
aF88.502378
aa(lp253
S'2015-07-29'
p254
aF90.419998
aF91.260002
aF90.150002
aF91.199997
aI49600
aF89.216497
aa(lp255
S'2015-07-30'
p256
aF90.879997
aF91.669998
aF90.519997
aF91.480003
aI43400
aF89.490414
aa(lp257
S'2015-07-31'
p258
aF91.709999
aF91.709999
aF91.169998
aF91.239998
aI101500
aF89.255628
aa(lp259
S'2015-08-03'
p260
aF91.25
aF91.25
aF90.379997
aF90.989998
aI1042600
aF89.011065
aa(lp261
S'2015-08-04'
p262
aF91.010002
aF91.139999
aF90.470001
aF90.779999
aI63800
aF88.805634
aa(lp263
S'2015-08-05'
p264
aF91.480003
aF92.540001
aF91.480003
aF92.089996
aI86500
aF90.08714
aa(lp265
S'2015-08-06'
p266
aF92.150002
aF92.150002
aF90.559998
aF90.730003
aI60800
aF88.756726
aa(lp267
S'2015-08-07'
p268
aF90.720001
aF91.040001
aF90.379997
aF91.010002
aI77800
aF89.030635
aa(lp269
S'2015-08-10'
p270
aF91.580002
aF92.720001
aF91.580002
aF92.610001
aI58600
aF90.595835
aa(lp271
S'2015-08-11'
p272
aF91.830002
aF91.940002
aF90.860001
aF91.18
aI91200
aF89.196936
aa(lp273
S'2015-08-12'
p274
aF90.589996
aF91.809998
aF89.790001
aF91.599998
aI60600
aF89.607799
aa(lp275
S'2015-08-13'
p276
aF91.620003
aF91.809998
aF91.209999
aF91.239998
aI58400
aF89.255628
aa(lp277
S'2015-08-14'
p278
aF91.150002
aF91.699997
aF91.0
aF91.610001
aI28600
aF89.617584
aa(lp279
S'2015-08-17'
p280
aF91.269997
aF92.190002
aF90.870003
aF92.190002
aI42200
aF90.184971
aa(lp281
S'2015-08-18'
p282
aF91.940002
aF91.949997
aF91.300003
aF91.410004
aI56500
aF89.421937
aa(lp283
S'2015-08-19'
p284
aF91.18
aF91.400002
aF90.099998
aF90.610001
aI137900
aF88.639333
aa(lp285
S'2015-08-20'
p286
aF89.93
aF89.970001
aF88.169998
aF88.169998
aI151400
aF86.252398
aa(lp287
S'2015-08-21'
p288
aF87.290001
aF88.040001
aF85.449997
aF85.449997
aI314300
aF83.591553
aa(lp289
S'2015-08-24'
p290
aF79.209999
aF85.169998
aF75.849998
aF82.400002
aI281300
aF80.607892
aa(lp291
S'2015-08-25'
p292
aF83.25
aF85.029999
aF81.330002
aF81.330002
aI106700
aF79.561164
aa(lp293
S'2015-08-26'
p294
aF82.5
aF84.970001
aF81.82
aF84.839996
aI323700
aF82.99482
aa(lp295
S'2015-08-27'
p296
aF85.68
aF87.199997
aF85.5
aF87.139999
aI133300
aF85.2448
aa(lp297
S'2015-08-28'
p298
aF86.760002
aF87.489998
aF86.760002
aF87.230003
aI69200
aF85.332847
aa(lp299
S'2015-08-31'
p300
aF87.040001
aF87.410004
aF86.449997
aF86.690002
aI80100
aF84.80459
aa(lp301
S'2015-09-01'
p302
aF85.889999
aF85.889999
aF83.620003
aF84.199997
aI193200
aF82.36874
aa(lp303
S'2015-09-02'
p304
aF85.059998
aF85.550003
aF84.209999
aF85.550003
aI44100
aF83.689385
aa(lp305
S'2015-09-03'
p306
aF85.970001
aF87.0
aF85.830002
aF86.07
aI73300
aF84.198072
aa(lp307
S'2015-09-04'
p308
aF85.209999
aF85.470001
aF84.389999
aF84.730003
aI53700
aF82.887219
aa(lp309
S'2015-09-08'
p310
aF86.379997
aF87.580002
aF86.18
aF87.529999
aI57400
aF85.626318
aa(lp311
S'2015-09-09'
p312
aF88.260002
aF88.5
aF86.190002
aF86.25
aI40200
aF84.374157
aa(lp313
S'2015-09-10'
p314
aF86.139999
aF87.540001
aF85.980003
aF86.879997
aI80000
aF84.990453
aa(lp315
S'2015-09-11'
p316
aF86.440002
aF87.080002
aF86.150002
aF87.059998
aI43100
aF85.166538
aa(lp317
S'2015-09-14'
p318
aF87.330002
aF87.330002
aF86.580002
aF86.769997
aI20000
aF84.882845
aa(lp319
S'2015-09-15'
p320
aF87.040001
aF88.110001
aF87.0
aF87.849998
aI364800
aF85.939358
aa(lp321
S'2015-09-16'
p322
aF87.919998
aF88.559998
aF87.790001
aF88.440002
aI97300
aF86.51653
aa(lp323
S'2015-09-17'
p324
aF88.25
aF89.139999
aF87.720001
aF87.900002
aI136700
aF85.988273
aa(lp325
S'2015-09-18'
p326
aF86.480003
aF87.309998
aF86.120003
aF86.32
aI79200
aF84.687355
aa(lp327
S'2015-09-21'
p328
aF86.75
aF87.419998
aF86.220001
aF86.800003
aI56600
aF85.15828
aa(lp329
S'2015-09-22'
p330
aF85.660004
aF85.660004
aF84.769997
aF85.209999
aI53100
aF83.598349
aa(lp331
S'2015-09-23'
p332
aF85.43
aF85.669998
aF84.830002
aF85.239998
aI20600
aF83.62778
aa(lp333
S'2015-09-24'
p334
aF84.489998
aF85.279999
aF83.57
aF85.110001
aI93600
aF83.500242
aa(lp335
S'2015-09-25'
p336
aF85.75
aF85.940002
aF84.5
aF85.129997
aI79700
aF83.51986
aa(lp337
S'2015-09-28'
p338
aF84.639999
aF84.779999
aF82.82
aF82.839996
aI87600
aF81.273172
aa(lp339
S'2015-09-29'
p340
aF83.059998
aF83.629997
aF82.480003
aF82.940002
aI74700
aF81.371286
aa(lp341
S'2015-09-30'
p342
aF84.129997
aF85.269997
aF84.129997
aF85.139999
aI58400
aF83.529673
aa(lp343
S'2015-10-01'
p344
aF85.279999
aF85.279999
aF83.870003
aF84.940002
aI122300
aF83.333459
aa(lp345
S'2015-10-02'
p346
aF83.949997
aF86.480003
aF83.790001
aF86.480003
aI94400
aF84.844332
aa(lp347
S'2015-10-05'
p348
aF87.07
aF88.5
aF87.07
aF88.230003
aI56500
aF86.561233
aa(lp349
S'2015-10-06'
p350
aF88.120003
aF88.519997
aF87.68
aF88.300003
aI33500
aF86.629909
aa(lp351
S'2015-10-07'
p352
aF88.919998
aF89.400002
aF88.019997
aF89.239998
aI66600
aF87.552125
aa(lp353
S'2015-10-08'
p354
aF89.129997
aF90.120003
aF88.790001
aF90.010002
aI49500
aF88.307565
aa(lp355
S'2015-10-09'
p356
aF90.120003
aF90.25
aF89.760002
aF90.199997
aI152500
aF88.493966
aa(lp357
S'2015-10-12'
p358
aF90.25
aF90.410004
aF89.919998
aF90.360001
aI29300
aF88.650944
aa(lp359
S'2015-10-13'
p360
aF89.93
aF90.470001
aF89.620003
aF89.690002
aI32200
aF87.993618
aa(lp361
S'2015-10-14'
p362
aF89.830002
aF90.830002
aF89.769997
aF90.199997
aI79300
aF88.493966
aa(lp363
S'2015-10-15'
p364
aF90.43
aF91.059998
aF90.290001
aF91.059998
aI50100
aF89.337701
aa(lp365
S'2015-10-16'
p366
aF91.190002
aF91.190002
aF90.709999
aF91.139999
aI31800
aF89.41619
aa(lp367
S'2015-10-19'
p368
aF90.959999
aF91.449997
aF90.830002
aF91.290001
aI26700
aF89.563354
aa(lp369
S'2015-10-20'
p370
aF91.150002
aF91.410004
aF90.870003
aF91.150002
aI36500
aF89.426003
aa(lp371
S'2015-10-21'
p372
aF91.580002
aF91.610001
aF90.300003
aF90.370003
aI341500
aF88.660757
aa(lp373
S'2015-10-22'
p374
aF91.110001
aF92.989998
aF91.110001
aF92.809998
aI76200
aF91.054602
aa(lp375
S'2015-10-23'
p376
aF93.699997
aF94.269997
aF93.379997
aF94.110001
aI93500
aF92.330017
aa(lp377
S'2015-10-26'
p378
aF94.050003
aF94.050003
aF93.269997
aF93.489998
aI80000
aF91.721741
aa(lp379
S'2015-10-27'
p380
aF93.220001
aF93.400002
aF92.900002
aF93.150002
aI167000
aF91.388175
aa(lp381
S'2015-10-28'
p382
aF93.169998
aF94.129997
aF93.0
aF94.129997
aI71200
aF92.349635
aa(lp383
S'2015-10-29'
p384
aF93.349998
aF93.489998
aF93.010002
aF93.120003
aI99400
aF91.358744
aa(lp385
S'2015-10-30'
p386
aF93.290001
aF93.599998
aF93.129997
aF93.239998
aI43200
aF91.476469
aa(lp387
S'2015-11-02'
p388
aF93.400002
aF94.150002
aF93.290001
aF94.050003
aI186500
aF92.271154
aa(lp389
S'2015-11-03'
p390
aF93.989998
aF94.800003
aF93.739998
aF94.449997
aI117400
aF92.663582
aa(lp391
S'2015-11-04'
p392
aF94.75
aF94.75
aF94.07
aF94.360001
aI107300
aF92.575288
aa(lp393
S'2015-11-05'
p394
aF94.550003
aF94.620003
aF93.599998
aF93.870003
aI58700
aF92.094558
aa(lp395
S'2015-11-06'
p396
aF94.050003
aF94.970001
aF94.040001
aF94.889999
aI35500
aF93.095263
aa(lp397
S'2015-11-09'
p398
aF94.889999
aF94.889999
aF93.400002
aF93.849998
aI45200
aF92.074932
aa(lp399
S'2015-11-10'
p400
aF93.389999
aF93.410004
aF92.889999
aF93.309998
aI39300
aF91.545145
aa(lp401
S'2015-11-11'
p402
aF93.779999
aF93.879997
aF93.120003
aF93.290001
aI445900
aF91.525526
aa(lp403
S'2015-11-12'
p404
aF93.0
aF93.199997
aF92.169998
aF92.169998
aI47400
aF90.426707
aa(lp405
S'2015-11-13'
p406
aF92.120003
aF92.120003
aF90.690002
aF90.769997
aI64400
aF89.053185
aa(lp407
S'2015-11-16'
p408
aF90.989998
aF92.110001
aF90.830002
aF92.059998
aI59900
aF90.318787
aa(lp409
S'2015-11-17'
p410
aF92.349998
aF93.160004
aF92.139999
aF92.470001
aI41800
aF90.721036
aa(lp411
S'2015-11-18'
p412
aF92.830002
aF93.739998
aF92.510002
aF93.660004
aI55300
aF91.888531
aa(lp413
S'2015-11-19'
p414
aF93.949997
aF94.25
aF93.68
aF93.889999
aI55000
aF92.114177
aa(lp415
S'2015-11-20'
p416
aF94.169998
aF94.480003
aF94.160004
aF94.419998
aI39200
aF92.634151
aa(lp417
S'2015-11-23'
p418
aF94.5
aF94.5
aF93.839996
aF94.129997
aI41200
aF92.349635
aa(lp419
S'2015-11-24'
p420
aF93.580002
aF94.410004
aF93.330002
aF94.220001
aI25800
aF92.437937
aa(lp421
S'2015-11-25'
p422
aF94.230003
aF94.400002
aF94.099998
aF94.169998
aI36500
aF92.38888
aa(lp423
S'2015-11-27'
p424
aF94.260002
aF94.419998
aF94.129997
aF94.290001
aI9400
aF92.506613
aa(lp425
S'2015-11-30'
p426
aF94.669998
aF94.889999
aF94.309998
aF94.730003
aI1295800
aF92.938293
aa(lp427
S'2015-12-01'
p428
aF94.989998
aF95.75
aF94.989998
aF95.720001
aI98400
aF93.909566
aa(lp429
S'2015-12-02'
p430
aF95.720001
aF95.910004
aF94.870003
aF94.949997
aI41300
aF93.154126
aa(lp431
S'2015-12-03'
p432
aF95.440002
aF95.480003
aF93.419998
aF93.830002
aI59800
aF92.055314
aa(lp433
S'2015-12-04'
p434
aF94.0
aF95.800003
aF93.949997
aF95.629997
aI59100
aF93.821264
aa(lp435
S'2015-12-07'
p436
aF95.480003
aF95.480003
aF94.669998
aF94.910004
aI69700
aF93.114889
aa(lp437
S'2015-12-08'
p438
aF93.989998
aF94.940002
aF93.75
aF94.739998
aI254200
aF92.948098
aa(lp439
S'2015-12-09'
p440
aF94.379997
aF95.050003
aF93.0
aF93.419998
aI104600
aF91.653065
aa(lp441
S'2015-12-10'
p442
aF93.370003
aF94.18
aF93.25
aF93.599998
aI91900
aF91.829661
aa(lp443
S'2015-12-11'
p444
aF92.660004
aF92.739998
aF91.739998
aF91.93
aI104500
aF90.191249
aa(lp445
S'2015-12-14'
p446
aF91.959999
aF92.190002
aF90.900002
aF91.860001
aI145500
aF90.122573
aa(lp447
S'2015-12-15'
p448
aF92.529999
aF93.410004
aF92.529999
aF92.940002
aI102800
aF91.182148
aa(lp449
S'2015-12-16'
p450
aF93.589996
aF94.199997
aF92.709999
aF94.059998
aI68400
aF92.280959
aa(lp451
S'2015-12-17'
p452
aF94.400002
aF94.400002
aF92.459999
aF92.459999
aI47900
aF90.711223
aa(lp453
S'2015-12-18'
p454
aF91.830002
aF92.010002
aF90.629997
aF90.629997
aI58600
aF89.29247
aa(lp455
S'2015-12-21'
p456
aF91.309998
aF91.610001
aF90.889999
aF91.610001
aI46300
aF90.25801
aa(lp457
S'2015-12-22'
p458
aF92.010002
aF92.419998
aF91.43
aF92.269997
aI84000
aF90.908266
aa(lp459
S'2015-12-23'
p460
aF92.540001
aF93.230003
aF92.540001
aF93.199997
aI58400
aF91.824541
aa(lp461
S'2015-12-24'
p462
aF93.18
aF93.540001
aF92.970001
aF93.32
aI33900
aF91.942773
aa(lp463
S'2015-12-28'
p464
aF92.970001
aF93.050003
aF92.25
aF93.050003
aI48700
aF91.676761
aa(lp465
S'2015-12-29'
p466
aF93.599998
aF94.300003
aF93.599998
aF94.089996
aI53600
aF92.701406
aa(lp467
S'2015-12-30'
p468
aF94.029999
aF94.139999
aF93.459999
aF93.5
aI67200
aF92.120117
aa(lp469
S'2015-12-31'
p470
aF93.220001
aF93.25
aF92.269997
aF92.269997
aI1183700
aF90.908266
aa(lp471
S'2016-01-04'
p472
aF90.730003
aF90.870003
aF89.720001
aF90.870003
aI131900
aF89.528933
aa(lp473
S'2016-01-05'
p474
aF91.269997
aF91.449997
aF90.470001
aF90.660004
aI138200
aF89.322033
aa(lp475
S'2016-01-06'
p476
aF89.449997
aF89.68
aF88.529999
aF89.010002
aI58400
aF87.696383
aa(lp477
S'2016-01-07'
p478
aF87.190002
aF88.32
aF86.43
aF86.599998
aI357300
aF85.321946
aa(lp479
S'2016-01-08'
p480
aF87.089996
aF87.139999
aF85.43
aF85.5
aI108200
aF84.238182
aa(lp481
S'2016-01-11'
p482
aF86.0
aF86.099998
aF84.480003
aF85.68
aI110200
aF84.415525
aa(lp483
S'2016-01-12'
p484
aF86.349998
aF86.910004
aF85.410004
aF86.57
aI68600
aF85.29239
aa(lp485
S'2016-01-13'
p486
aF86.769997
aF87.0
aF83.760002
aF84.0
aI420500
aF82.760319
aa(lp487
S'2016-01-14'
p488
aF84.300003
aF85.900002
aF83.339996
aF85.370003
aI204700
aF84.110103
aa(lp489
S'2016-01-15'
p490
aF82.970001
aF83.629997
aF81.839996
aF82.949997
aI145600
aF81.725812
aa(lp491
S'2016-01-19'
p492
aF83.93
aF84.150002
aF82.059998
aF82.790001
aI185900
aF81.568177
aa(lp493
S'2016-01-20'
p494
aF81.620003
aF83.080002
aF80.089996
aF82.360001
aI134800
aF81.144523
aa(lp495
S'2016-01-21'
p496
aF82.830002
aF83.970001
aF82.239998
aF82.860001
aI83200
aF81.637144
aa(lp497
S'2016-01-22'
p498
aF84.160004
aF84.709999
aF83.900002
aF84.589996
aI66300
aF83.341608
aa(lp499
S'2016-01-25'
p500
aF84.309998
aF84.360001
aF83.230003
aF83.330002
aI49900
aF82.100208
aa(lp501
S'2016-01-26'
p502
aF83.559998
aF84.68
aF83.419998
aF84.5
aI299700
aF83.25294
aa(lp503
S'2016-01-27'
p504
aF84.129997
aF84.709999
aF82.720001
aF83.080002
aI42400
aF81.853898
aa(lp505
S'2016-01-28'
p506
aF83.739998
aF83.800003
aF82.190002
aF82.82
aI79200
aF81.597733
aa(lp507
S'2016-01-29'
p508
aF83.349998
aF85.610001
aF83.349998
aF85.580002
aI71000
aF84.317003
aa(lp509
S'2016-02-01'
p510
aF85.07
aF86.290001
aF84.879997
aF85.980003
aI98400
aF84.711101
aa(lp511
S'2016-02-02'
p512
aF85.150002
aF85.150002
aF83.089996
aF83.419998
aI94300
aF82.188877
aa(lp513
S'2016-02-03'
p514
aF83.900002
aF84.129997
aF82.199997
aF83.660004
aI85000
aF82.42534
aa(lp515
S'2016-02-04'
p516
aF83.629997
aF85.080002
aF83.519997
aF84.529999
aI214700
aF83.282496
aa(lp517
S'2016-02-05'
p518
aF84.290001
aF84.290001
aF81.629997
aF81.849998
aI77600
aF80.642047
aa(lp519
S'2016-02-08'
p520
aF80.559998
aF80.559998
aF78.32
aF79.57
aI86900
aF78.395697
aa(lp521
S'2016-02-09'
p522
aF78.68
aF80.559998
aF78.529999
aF79.18
aI115800
aF78.011453
aa(lp523
S'2016-02-10'
p524
aF80.010002
aF81.279999
aF79.650002
aF79.730003
aI263600
aF78.553339
aa(lp525
S'2016-02-11'
p526
aF78.669998
aF79.599998
aF78.18
aF79.370003
aI132300
aF78.198652
aa(lp527
S'2016-02-12'
p528
aF79.949997
aF80.760002
aF79.129997
aF80.720001
aI55700
aF79.528727
aa(lp529
S'2016-02-16'
p530
aF81.580002
aF82.940002
aF81.580002
aF82.849998
aI43500
aF81.627289
aa(lp531
S'2016-02-17'
p532
aF83.360001
aF84.860001
aF83.360001
aF84.730003
aI154700
aF83.479549
aa(lp533
S'2016-02-18'
p534
aF85.150002
aF85.290001
aF84.639999
aF84.739998
aI34600
aF83.489396
aa(lp535
S'2016-02-19'
p536
aF84.629997
aF85.360001
aF84.379997
aF85.32
aI26200
aF84.060838
aa(lp537
S'2016-02-22'
p538
aF86.199997
aF86.860001
aF86.199997
aF86.639999
aI53100
aF85.361357
aa(lp539
S'2016-02-23'
p540
aF86.160004
aF86.279999
aF85.199997
aF85.300003
aI23800
aF84.041136
aa(lp541
S'2016-02-24'
p542
aF84.410004
aF86.389999
aF83.910004
aF86.300003
aI36000
aF85.026378
aa(lp543
S'2016-02-25'
p544
aF86.669998
aF87.379997
aF85.949997
aF87.379997
aI73700
aF86.090434
aa(lp545
S'2016-02-26'
p546
aF87.940002
aF88.010002
aF87.309998
aF87.580002
aI45400
aF86.287487
aa(lp547
S'2016-02-29'
p548
aF87.440002
aF88.230003
aF87.139999
aF87.150002
aI23600
aF85.863832
aa(lp549
S'2016-03-01'
p550
aF87.610001
aF89.199997
aF87.510002
aF89.199997
aI68700
aF87.883574
aa(lp551
S'2016-03-02'
p552
aF88.989998
aF89.489998
aF88.870003
aF89.489998
aI91000
aF88.169295
aa(lp553
S'2016-03-03'
p554
aF89.480003
aF89.919998
aF89.0
aF89.889999
aI35800
aF88.563393
aa(lp555
S'2016-03-04'
p556
aF90.239998
aF90.839996
aF89.889999
aF90.290001
aI43600
aF88.957491
aa(lp557
S'2016-03-07'
p558
aF89.809998
aF90.800003
aF89.809998
aF90.589996
aI54200
aF89.253059
aa(lp559
S'2016-03-08'
p560
aF90.040001
aF90.040001
aF88.980003
aF89.010002
aI34500
aF87.696383
aa(lp561
S'2016-03-09'
p562
aF89.440002
aF89.940002
aF89.279999
aF89.739998
aI36500
aF88.415605
aa(lp563
S'2016-03-10'
p564
aF90.239998
aF90.800003
aF88.760002
aF89.669998
aI52200
aF88.346638
aa(lp565
S'2016-03-11'
p566
aF90.349998
aF91.449997
aF90.349998
aF91.449997
aI47200
aF90.100368
aa(lp567
S'2016-03-14'
p568
aF91.080002
aF91.43
aF90.959999
aF91.389999
aI31800
aF90.041256
aa(lp569
S'2016-03-15'
p570
aF90.879997
aF91.089996
aF90.589996
aF90.970001
aI19300
aF89.627456
aa(lp571
S'2016-03-16'
p572
aF90.779999
aF92.029999
aF90.779999
aF91.860001
aI32800
aF90.504321
aa(lp573
S'2016-03-17'
p574
aF91.790001
aF92.75
aF91.629997
aF92.540001
aI46600
aF91.174285
aa(lp575
S'2016-03-18'
p576
aF92.32
aF92.650002
aF92.129997
aF92.629997
aI36900
aF91.826578
aa(lp577
S'2016-03-21'
p578
aF92.459999
aF92.959999
aF92.389999
aF92.959999
aI33500
aF92.153717
aa(lp579
S'2016-03-22'
p580
aF92.510002
aF93.370003
aF92.470001
aF93.050003
aI38800
aF92.24294
aa(lp581
S'2016-03-23'
p582
aF93.050003
aF93.050003
aF91.989998
aF92.029999
aI17200
aF91.231783
aa(lp583
S'2016-03-24'
p584
aF91.709999
aF91.989998
aF91.32
aF91.989998
aI40000
aF91.192129
aa(lp585
S'2016-03-28'
p586
aF92.190002
aF92.379997
aF91.839996
aF92.059998
aI31900
aF91.261522
aa(lp587
S'2016-03-29'
p588
aF91.839996
aF93.339996
aF91.620003
aF93.25
aI24800
aF92.441203
aa(lp589
S'2016-03-30'
p590
aF93.599998
aF94.269997
aF93.5
aF93.709999
aI20200
aF92.897212
aa(lp591
S'2016-03-31'
p592
aF93.580002
aF94.07
aF93.550003
aF93.760002
aI26900
aF92.946781
aa(lp593
S'2016-04-01'
p594
aF93.169998
aF94.419998
aF93.169998
aF94.349998
aI73900
aF93.53166
aa(lp595
S'2016-04-04'
p596
aF94.330002
aF94.419998
aF93.660004
aF93.709999
aI48200
aF92.897212
aa(lp597
S'2016-04-05'
p598
aF93.199997
aF93.370003
aF92.599998
aF92.739998
aI319200
aF91.935624
aa(lp599
S'2016-04-06'
p600
aF92.660004
aF93.709999
aF92.269997
aF93.699997
aI46500
aF92.887297
aa(lp601
S'2016-04-07'
p602
aF93.029999
aF93.029999
aF91.849998
aF92.199997
aI19800
aF91.400307
aa(lp603
S'2016-04-08'
p604
aF92.760002
aF93.150002
aF92.110001
aF92.290001
aI16800
aF91.48953
aa(lp605
S'2016-04-11'
p606
aF92.870003
aF93.529999
aF92.25
aF92.290001
aI76800
aF91.48953
aa(lp607
S'2016-04-12'
p608
aF92.290001
aF92.449997
aF91.309998
aF92.18
aI126400
aF91.380484
aa(lp609
S'2016-04-13'
p610
aF92.709999
aF93.809998
aF92.709999
aF93.690002
aI44600
aF92.877389
aa(lp611
S'2016-04-14'
p612
aF93.330002
aF93.339996
aF92.690002
aF93.07
aI21400
aF92.262764
aa(lp613
S'2016-04-15'
p614
aF93.220001
aF93.220001
aF92.559998
aF92.769997
aI15400
aF91.965363
aa(lp615
S'2016-04-18'
p616
aF92.410004
aF93.32
aF92.32
aF93.260002
aI26800
aF92.451118
aa(lp617
S'2016-04-19'
p618
aF93.43
aF93.440002
aF92.309998
aF92.699997
aI41400
aF91.89597
aa(lp619
S'2016-04-20'
p620
aF92.830002
aF93.589996
aF92.57
aF93.199997
aI45600
aF92.391633
aa(lp621
S'2016-04-21'
p622
aF93.269997
aF93.43
aF92.839996
aF92.900002
aI24100
aF92.09424
aa(lp623
S'2016-04-22'
p624
aF92.589996
aF93.169998
aF92.279999
aF92.669998
aI31900
aF91.866231
aa(lp625
S'2016-04-25'
p626
aF92.449997
aF92.489998
aF92.029999
aF92.360001
aI27900
aF91.558923
aa(lp627
S'2016-04-26'
p628
aF92.589996
aF92.919998
aF92.43
aF92.610001
aI26300
aF91.806754
aa(lp629
S'2016-04-27'
p630
aF92.370003
aF93.160004
aF92.029999
aF93.019997
aI45400
aF92.213194
aa(lp631
S'2016-04-28'
p632
aF92.669998
aF93.190002
aF91.349998
aF91.510002
aI19900
aF90.716297
aa(lp633
S'2016-04-29'
p634
aF91.099998
aF91.099998
aF89.339996
aF89.949997
aI364200
aF89.169822
aa(lp635
S'2016-05-02'
p636
aF90.110001
aF90.529999
aF89.800003
aF90.410004
aI87900
aF89.625839
aa(lp637
S'2016-05-03'
p638
aF89.82
aF89.879997
aF89.190002
aF89.300003
aI50000
aF88.525466
aa(lp639
S'2016-05-04'
p640
aF88.900002
aF89.099998
aF88.349998
aF88.639999
aI36900
aF87.871187
aa(lp641
S'2016-05-05'
p642
aF89.0
aF89.330002
aF88.629997
aF88.690002
aI56600
aF87.920756
aa(lp643
S'2016-05-06'
p644
aF88.400002
aF89.459999
aF88.400002
aF89.459999
aI33500
aF88.684074
aa(lp645
S'2016-05-09'
p646
aF89.43
aF89.849998
aF89.400002
aF89.480003
aI36200
aF88.703905
aa(lp647
S'2016-05-10'
p648
aF89.830002
aF90.699997
aF89.790001
aF90.68
aI16300
aF89.893494
aa(lp649
S'2016-05-11'
p650
aF90.529999
aF91.099998
aF90.239998
aF90.239998
aI29200
aF89.457308
aa(lp651
S'2016-05-12'
p652
aF90.459999
aF90.589996
aF89.32
aF89.839996
aI75600
aF89.060775
aa(lp653
S'2016-05-13'
p654
aF89.739998
aF90.470001
aF89.57
aF89.720001
aI28800
aF88.941821
aa(lp655
S'2016-05-16'
p656
aF89.760002
aF91.089996
aF89.760002
aF90.699997
aI20700
aF89.913317
aa(lp657
S'2016-05-17'
p658
aF90.480003
aF90.860001
aF89.779999
aF90.010002
aI22800
aF89.229307
aa(lp659
S'2016-05-18'
p660
aF89.730003
aF91.160004
aF89.730003
aF90.550003
aI39200
aF89.764624
aa(lp661
S'2016-05-19'
p662
aF90.309998
aF90.610001
aF89.489998
aF90.059998
aI24500
aF89.278869
aa(lp663
S'2016-05-20'
p664
aF90.68
aF91.529999
aF90.470001
aF91.43
aI37000
aF90.636989
aa(lp665
S'2016-05-23'
p666
aF91.550003
aF92.010002
aF91.510002
aF91.599998
aI158000
aF90.805512
aa(lp667
S'2016-05-24'
p668
aF91.970001
aF93.730003
aF91.970001
aF93.620003
aI27400
aF92.807996
aa(lp669
S'2016-05-25'
p670
aF94.080002
aF94.330002
aF93.879997
aF94.029999
aI26500
aF93.214436
aa(lp671
S'2016-05-26'
p672
aF93.93
aF94.410004
aF93.919998
aF94.269997
aI23500
aF93.452352
aa(lp673
S'2016-05-27'
p674
aF94.239998
aF95.050003
aF94.239998
aF95.019997
aI23700
aF94.195847
aa(lp675
S'2016-05-31'
p676
aF95.300003
aF95.589996
aF94.940002
aF95.5
aI320900
aF94.671687
aa(lp677
S'2016-06-01'
p678
aF94.82
aF95.660004
aF94.82
aF95.540001
aI56300
aF94.711341
aa(lp679
S'2016-06-02'
p680
aF95.260002
aF95.959999
aF95.260002
aF95.949997
aI25200
aF95.117781
aa(lp681
S'2016-06-03'
p682
aF95.790001
aF95.790001
aF94.849998
aF95.559998
aI20400
aF94.731165
aa(lp683
S'2016-06-06'
p684
aF95.480003
aF95.970001
aF95.480003
aF95.739998
aI34100
aF94.909604
aa(lp685
S'2016-06-07'
p686
aF96.0
aF96.410004
aF95.980003
aF96.410004
aI35000
aF95.573798
aa(lp687
S'2016-06-08'
p688
aF96.339996
aF96.589996
aF96.150002
aF96.489998
aI24600
aF95.653099
aa(lp689
S'2016-06-09'
p690
aF95.980003
aF96.349998
aF95.93
aF96.269997
aI19900
aF95.435006
aa(lp691
S'2016-06-10'
p692
aF95.32
aF95.32
aF94.580002
aF94.830002
aI21100
aF94.0075
aa(lp693
S'2016-06-13'
p694
aF94.5
aF95.110001
aF94.059998
aF94.18
aI20900
aF93.363137
aa(lp695
S'2016-06-14'
p696
aF93.830002
aF94.459999
aF93.639999
aF94.32
aI16200
aF93.501922
aa(lp697
S'2016-06-15'
p698
aF94.760002
aF94.830002
aF94.300003
aF94.349998
aI19500
aF93.53166
aa(lp699
S'2016-06-16'
p700
aF93.760002
aF94.660004
aF93.18
aF94.589996
aI28900
aF93.769577
aa(lp701
S'2016-06-17'
p702
aF94.300003
aF94.300003
aF93.589996
aF93.879997
aI15700
aF93.313345
aa(lp703
S'2016-06-20'
p704
aF95.220001
aF95.730003
aF94.849998
aF94.910004
aI23200
aF94.337134
aa(lp705
S'2016-06-21'
p706
aF95.099998
aF95.510002
aF95.010002
aF95.379997
aI17700
aF94.804291
aa(lp707
S'2016-06-22'
p708
aF95.379997
aF95.669998
aF94.860001
aF94.889999
aI50600
aF94.317251
aa(lp709
S'2016-06-23'
p710
aF95.720001
aF96.769997
aF95.669998
aF96.760002
aI38700
aF96.175966
aa(lp711
S'2016-06-24'
p712
aF93.150002
aF94.230003
aF91.809998
aF91.900002
aI111000
aF91.3453
aa(lp713
S'2016-06-27'
p714
aF91.139999
aF91.139999
aF88.269997
aF88.629997
aI138600
aF88.095033
aa(lp715
S'2016-06-28'
p716
aF89.660004
aF90.650002
aF89.660004
aF90.610001
aI50100
aF90.063086
aa(lp717
S'2016-06-29'
p718
aF91.360001
aF92.620003
aF91.360001
aF92.43
aI49600
aF91.8721
aa(lp719
S'2016-06-30'
p720
aF92.650002
aF93.82
aF92.580002
aF93.82
aI65600
aF93.253709
aa(lp721
S'2016-07-01'
p722
aF93.75
aF94.089996
aF93.620003
aF93.739998
aI34700
aF93.17419
aa(lp723
S'2016-07-05'
p724
aF93.25
aF93.25
aF92.190002
aF92.610001
aI15400
aF92.051014
aa(lp725
S'2016-07-06'
p726
aF92.309998
aF93.169998
aF91.709999
aF93.07
aI27800
aF92.508236
aa(lp727
S'2016-07-07'
p728
aF93.300003
aF93.800003
aF93.160004
aF93.480003
aI11600
aF92.915765
aa(lp729
S'2016-07-08'
p730
aF94.120003
aF95.529999
aF94.110001
aF95.529999
aI43800
aF94.953387
aa(lp731
S'2016-07-11'
p732
aF95.93
aF96.410004
aF95.93
aF96.230003
aI19000
aF95.649166
aa(lp733
S'2016-07-12'
p734
aF97.029999
aF97.839996
aF97.029999
aF97.779999
aI52300
aF97.189806
aa(lp735
S'2016-07-13'
p736
aF97.93
aF98.129997
aF97.669998
aF97.730003
aI76600
aF97.140112
aa(lp737
S'2016-07-14'
p738
aF98.379997
aF98.510002
aF98.099998
aF98.290001
aI26400
aF97.69673
aa(lp739
S'2016-07-15'
p740
aF98.440002
aF98.440002
aF97.860001
aF98.099998
aI19200
aF97.507874
aa(lp741
S'2016-07-18'
p742
aF98.32
aF98.769997
aF98.25
aF98.559998
aI25700
aF97.965097
aa(lp743
S'2016-07-19'
p744
aF98.510002
aF98.589996
aF98.25
aF98.400002
aI23300
aF97.806067
aa(lp745
S'2016-07-20'
p746
aF98.699997
aF99.690002
aF98.699997
aF99.559998
aI67300
aF98.959061
aa(lp747
S'2016-07-21'
p748
aF99.800003
aF100.0
aF98.959999
aF99.199997
aI26100
aF98.601233
aa(lp749
S'2016-07-22'
p750
aF99.099998
aF99.800003
aF98.75
aF99.769997
aI22200
aF99.167793
aa(lp751
S'2016-07-25'
p752
aF99.790001
aF100.029999
aF99.690002
aF99.949997
aI25300
aF99.346706
aa(lp753
S'2016-07-26'
p754
aF100.260002
aF101.5
aF100.209999
aF101.5
aI155900
aF100.887354
aa(lp755
S'2016-07-27'
p756
aF102.190002
aF102.190002
aF100.370003
aF100.769997
aI81800
aF100.161757
aa(lp757
S'2016-07-28'
p758
aF100.839996
aF101.040001
aF100.449997
aF100.93
aI18600
aF100.320794
aa(lp759
S'2016-07-29'
p760
aF100.830002
aF100.830002
aF99.989998
aF100.5
aI38900
aF99.89339
aa(lp761
S'2016-08-01'
p762
aF100.5
aF100.669998
aF100.059998
aF100.360001
aI174300
aF99.754235
aa(lp763
S'2016-08-02'
p764
aF100.220001
aF100.290001
aF98.669998
aF99.110001
aI190000
aF98.51178
aa(lp765
S'2016-08-03'
p766
aF98.82
aF99.480003
aF98.730003
aF99.480003
aI19100
aF98.87955
aa(lp767
S'2016-08-04'
p768
aF99.620003
aF99.970001
aF99.589996
aF99.800003
aI32400
aF99.197618
aa(lp769
S'2016-08-05'
p770
aF100.459999
aF101.199997
aF100.459999
aF101.139999
aI30400
aF100.529526
aa(lp771
S'2016-08-08'
p772
aF101.389999
aF101.510002
aF100.860001
aF100.980003
aI46400
aF100.370496
aa(lp773
S'2016-08-09'
p774
aF101.25
aF101.559998
aF101.199997
aF101.25
aI64900
aF100.638863
aa(lp775
S'2016-08-10'
p776
aF101.519997
aF101.519997
aF100.510002
aF100.669998
aI30700
aF100.062362
aa(lp777
S'2016-08-11'
p778
aF101.150002
aF101.459999
aF101.129997
aF101.32
aI40400
aF100.70844
aa(lp779
S'2016-08-12'
p780
aF101.470001
aF101.470001
aF101.110001
aF101.370003
aI37300
aF100.758141
aa(lp781
S'2016-08-15'
p782
aF102.190002
aF102.339996
aF101.690002
aF102.07
aI47000
aF101.453913
aa(lp783
S'2016-08-16'
p784
aF101.800003
aF101.800003
aF101.269997
aF101.379997
aI28300
aF100.768075
aa(lp785
S'2016-08-17'
p786
aF101.269997
aF101.269997
aF100.519997
aF101.029999
aI33100
aF100.420189
aa(lp787
S'2016-08-18'
p788
aF101.110001
aF101.769997
aF101.110001
aF101.769997
aI27400
aF101.155721
aa(lp789
S'2016-08-19'
p790
aF101.75
aF102.459999
aF101.730003
aF102.410004
aI181000
aF101.791865
aa(lp791
S'2016-08-22'
p792
aF102.150002
aF102.459999
aF101.93
aF102.360001
aI37200
aF101.742163
aa(lp793
S'2016-08-23'
p794
aF102.720001
aF103.120003
aF102.720001
aF102.889999
aI19400
aF102.268963
aa(lp795
S'2016-08-24'
p796
aF102.860001
aF103.080002
aF102.089996
aF102.290001
aI35300
aF101.672586
aa(lp797
S'2016-08-25'
p798
aF102.089996
aF102.839996
aF102.089996
aF102.669998
aI297300
aF102.05029
aa(lp799
S'2016-08-26'
p800
aF102.830002
aF103.739998
aF102.529999
aF103.139999
aI36200
aF102.517454
aa(lp801
S'2016-08-29'
p802
aF103.209999
aF103.720001
aF103.209999
aF103.389999
aI56300
aF102.765945
aa(lp803
S'2016-08-30'
p804
aF103.300003
aF103.739998
aF102.940002
aF103.290001
aI20000
aF102.66655
aa(lp805
S'2016-08-31'
p806
aF103.260002
aF103.260002
aF102.650002
aF103.120003
aI29700
aF102.497578
aa(lp807
S'2016-09-01'
p808
aF103.099998
aF103.610001
aF102.580002
aF103.580002
aI64200
aF102.954801
aa(lp809
S'2016-09-02'
p810
aF104.019997
aF104.43
aF103.690002
aF104.010002
aI12300
aF103.382206
aa(lp811
S'2016-09-06'
p812
aF104.199997
aF104.239998
aF103.730003
aF104.169998
aI29200
aF103.541236
aa(lp813
S'2016-09-07'
p814
aF104.260002
aF104.589996
aF104.099998
aF104.459999
aI94400
aF103.829486
aa(lp815
S'2016-09-08'
p816
aF104.190002
aF104.300003
aF103.760002
aF104.029999
aI50000
aF103.402082
aa(lp817
S'2016-09-09'
p818
aF103.220001
aF103.379997
aF101.32
aF101.370003
aI152800
aF100.758141
aa(lp819
S'2016-09-12'
p820
aF100.559998
aF103.050003
aF100.440002
aF102.949997
aI50600
aF102.328599
aa(lp821
S'2016-09-13'
p822
aF102.269997
aF102.769997
aF101.290001
aF101.709999
aI72300
aF101.096085
aa(lp823
S'2016-09-14'
p824
aF101.779999
aF102.400002
aF101.419998
aF101.769997
aI56400
aF101.155721
aa(lp825
S'2016-09-15'
p826
aF101.849998
aF103.559998
aF101.849998
aF103.410004
aI42000
aF102.785829
aa(lp827
S'2016-09-16'
p828
aF103.239998
aF103.260002
aF102.32
aF102.75
aI23500
aF102.356478
aa(lp829
S'2016-09-19'
p830
aF103.059998
aF103.760002
aF102.760002
aF103.0
aI17900
aF102.605521
aa(lp831
S'2016-09-20'
p832
aF103.389999
aF103.459999
aF102.580002
aF102.779999
aI46100
aF102.386362
aa(lp833
S'2016-09-21'
p834
aF103.110001
aF104.440002
aF103.110001
aF104.370003
aI64000
aF103.970276
aa(lp835
S'2016-09-22'
p836
aF104.970001
aF105.129997
aF104.709999
aF104.910004
aI34300
aF104.508209
aa(lp837
S'2016-09-23'
p838
aF104.739998
aF104.739998
aF104.199997
aF104.199997
aI33500
aF103.800922
aa(lp839
S'2016-09-26'
p840
aF103.68
aF104.0
aF103.239998
aF103.599998
aI21800
aF103.203221
aa(lp841
S'2016-09-27'
p842
aF103.510002
aF104.919998
aF103.510002
aF104.889999
aI152200
aF104.488282
aa(lp843
S'2016-09-28'
p844
aF105.0
aF105.230003
aF104.43
aF105.230003
aI65800
aF104.826983
aa(lp845
S'2016-09-29'
p846
aF105.129997
aF105.440002
aF104.5
aF104.779999
aI58700
aF104.378702
aa(lp847
S'2016-09-30'
p848
aF104.910004
aF105.790001
aF104.889999
aF105.510002
aI1302100
aF105.10591
aa(lp849
S'2016-10-03'
p850
aF105.25
aF105.599998
aF104.910004
aF105.110001
aI71100
aF104.70744
aa(lp851
S'2016-10-04'
p852
aF105.279999
aF105.510002
aF104.370003
aF104.720001
aI292600
aF104.318934
aa(lp853
S'2016-10-05'
p854
aF104.989998
aF105.75
aF104.989998
aF105.459999
aI144500
aF105.056098
aa(lp855
S'2016-10-06'
p856
aF105.550003
aF105.589996
aF104.82
aF105.559998
aI233800
aF105.155714
aa(lp857
S'2016-10-07'
p858
aF105.529999
aF105.529999
aF104.480003
aF104.980003
aI55800
aF104.577941
aa(lp859
S'2016-10-10'
p860
aF105.459999
aF105.940002
aF105.239998
aF105.290001
aI137800
aF104.886751
aa(lp861
S'2016-10-11'
p862
aF105.25
aF105.25
aF102.870003
aF103.419998
aI55800
aF103.02391
aa(lp863
S'2016-10-12'
p864
aF103.389999
aF103.529999
aF102.769997
aF103.300003
aI40100
aF102.904375
aa(lp865
S'2016-10-13'
p866
aF102.540001
aF102.68
aF101.230003
aF102.370003
aI40000
aF101.977936
aa(lp867
S'2016-10-14'
p868
aF102.800003
aF103.739998
aF102.709999
aF102.779999
aI75600
aF102.386362
aa(lp869
S'2016-10-17'
p870
aF102.769997
aF102.949997
aF102.199997
aF102.199997
aI33700
aF101.808582
aa(lp871
S'2016-10-18'
p872
aF103.050003
aF103.440002
aF102.949997
aF103.120003
aI65500
aF102.725064
aa(lp873
S'2016-10-19'
p874
aF102.980003
aF103.690002
aF102.959999
aF103.550003
aI29300
aF103.153417
aa(lp875
S'2016-10-20'
p876
aF103.389999
aF103.440002
aF102.779999
aF103.410004
aI26800
aF103.013954
aa(lp877
S'2016-10-21'
p878
aF103.139999
aF103.5
aF102.790001
aF103.449997
aI26500
aF103.053794
aa(lp879
S'2016-10-24'
p880
aF103.949997
aF104.699997
aF103.949997
aF104.660004
aI24600
aF104.259167
aa(lp881
S'2016-10-25'
p882
aF104.610001
aF104.720001
aF103.849998
aF104.110001
aI23600
aF103.71127
aa(lp883
S'2016-10-26'
p884
aF103.980003
aF105.169998
aF103.980003
aF104.68
aI25500
aF104.279087
aa(lp885
S'2016-10-27'
p886
aF105.18
aF105.290001
aF104.260002
aF104.400002
aI31000
aF104.00016
aa(lp887
S'2016-10-28'
p888
aF104.43
aF105.379997
aF104.07
aF104.43
aI51100
aF104.030044
aa(lp889
S'2016-10-31'
p890
aF104.709999
aF104.849998
aF104.43
aF104.629997
aI1004200
aF104.229275
aa(lp891
S'2016-11-01'
p892
aF104.830002
aF104.93
aF103.050003
aF103.93
aI268400
aF103.531959
aa(lp893
S'2016-11-02'
p894
aF103.879997
aF104.389999
aF103.019997
aF103.339996
aI56900
aF102.944215
aa(lp895
S'2016-11-03'
p896
aF103.150002
aF103.279999
aF102.550003
aF102.660004
aI61200
aF102.266826
aa(lp897
S'2016-11-04'
p898
aF102.279999
aF103.040001
aF101.940002
aF102.139999
aI53600
aF101.748814
aa(lp899
S'2016-11-07'
p900
aF103.559998
aF104.610001
aF103.559998
aF104.57
aI33300
aF104.169507
aa(lp901
S'2016-11-08'
p902
aF104.510002
aF105.389999
aF104.169998
aF104.919998
aI51200
aF104.518165
aa(lp903
S'2016-11-09'
p904
aF102.099998
aF105.419998
aF101.940002
aF105.199997
aI133500
aF104.797092
aa(lp905
S'2016-11-10'
p906
aF105.629997
aF106.639999
aF103.419998
aF104.610001
aI126100
aF104.209355
aa(lp907
S'2016-11-11'
p908
aF104.550003
aF105.879997
aF104.550003
aF105.830002
aI129500
aF105.424684
aa(lp909
S'2016-11-14'
p910
aF105.900002
aF106.220001
aF105.019997
aF105.269997
aI128300
aF104.866823
aa(lp911
S'2016-11-15'
p912
aF105.57
aF106.519997
aF105.57
aF106.339996
aI91900
aF105.932725
aa(lp913
S'2016-11-16'
p914
aF106.07
aF106.959999
aF105.959999
aF106.900002
aI60700
aF106.490586
aa(lp915
S'2016-11-17'
p916
aF106.959999
aF107.900002
aF106.959999
aF107.889999
aI83100
aF107.476792
aa(lp917
S'2016-11-18'
p918
aF108.019997
aF108.019997
aF107.459999
aF107.599998
aI96200
aF107.187902
aa(lp919
S'2016-11-21'
p920
aF107.860001
aF108.510002
aF107.669998
aF108.489998
aI118800
aF108.074492
aa(lp921
S'2016-11-22'
p922
aF108.769997
aF108.870003
aF108.370003
aF108.720001
aI93100
aF108.303615
aa(lp923
S'2016-11-23'
p924
aF108.660004
aF108.660004
aF108.220001
aF108.529999
aI79500
aF108.11434
aa(lp925
S'2016-11-25'
p926
aF108.629997
aF108.959999
aF108.519997
aF108.959999
aI13500
aF108.542694
aa(lp927
S'2016-11-28'
p928
aF109.0
aF109.129997
aF108.669998
aF108.75
aI54000
aF108.333499
aa(lp929
S'2016-11-29'
p930
aF108.800003
aF109.419998
aF108.5
aF108.910004
aI58100
aF108.49289
aa(lp931
S'2016-11-30'
p932
aF109.089996
aF109.089996
aF108.07
aF108.080002
aI76200
aF107.666067
aa(lp933
S'2016-12-01'
p934
aF108.120003
aF108.120003
aF104.620003
aF104.830002
aI337700
aF104.428514
aa(lp935
S'2016-12-02'
p936
aF104.800003
aF105.75
aF104.650002
aF105.529999
aI75000
aF105.12583
aa(lp937
S'2016-12-05'
p938
aF106.18
aF107.209999
aF106.07
aF106.900002
aI80500
aF106.490586
aa(lp939
S'2016-12-06'
p940
aF107.080002
aF107.449997
aF106.550003
aF107.410004
aI36100
aF106.998634
aa(lp941
S'2016-12-07'
p942
aF107.540001
aF109.760002
aF107.43
aF109.610001
aI45900
aF109.190206
aa(lp943
S'2016-12-08'
p944
aF109.790001
aF110.639999
aF109.599998
aF110.220001
aI123100
aF109.79787
aa(lp945
S'2016-12-09'
p946
aF110.589996
aF110.589996
aF109.599998
aF109.980003
aI108200
aF109.558791
aa(lp947
S'2016-12-12'
p948
aF109.669998
aF109.709999
aF108.690002
aF109.230003
aI39800
aF108.811664
aa(lp949
S'2016-12-13'
p950
aF109.529999
aF110.800003
aF109.529999
aF110.260002
aI109300
aF109.837718
aa(lp951
S'2016-12-14'
p952
aF110.360001
aF110.690002
aF109.589996
aF109.739998
aI68900
aF109.319705
aa(lp953
S'2016-12-15'
p954
aF110.059998
aF111.089996
aF109.940002
aF110.589996
aI137000
aF110.166448
aa(lp955
S'2016-12-16'
p956
aF110.720001
aF110.730003
aF109.279999
aF109.470001
aI51800
aF109.259201
aa(lp957
S'2016-12-19'
p958
aF109.599998
aF110.519997
aF109.599998
aF110.059998
aI78500
aF109.848061
aa(lp959
S'2016-12-20'
p960
aF110.510002
aF110.800003
aF110.260002
aF110.510002
aI79700
aF110.297199
aa(lp961
S'2016-12-21'
p962
aF110.489998
aF110.519997
aF110.190002
aF110.300003
aI126300
aF110.087604
aa(lp963
S'2016-12-22'
p964
aF110.459999
aF110.459999
aF109.57
aF109.889999
aI163600
aF109.67839
aa(lp965
S'2016-12-23'
p966
aF109.910004
aF110.230003
aF109.870003
aF110.230003
aI36300
aF110.017739
aa(lp967
S'2016-12-27'
p968
aF110.400002
aF111.150002
aF110.400002
aF110.760002
aI48900
aF110.546717
aa(lp969
S'2016-12-28'
p970
aF111.010002
aF111.110001
aF109.489998
aF109.550003
aI58400
aF109.339048
aa(lp971
S'2016-12-29'
p972
aF109.440002
aF109.800003
aF109.010002
aF109.43
aI22800
aF109.219277
aa(lp973
S'2016-12-30'
p974
aF109.660004
aF109.800003
aF108.230003
aF108.489998
aI92500
aF108.281084
aa(lp975
S'2017-01-03'
p976
aF109.040001
aF110.230003
aF108.860001
aF109.489998
aI138700
aF109.279159
aa(lp977
S'2017-01-04'
p978
aF109.800003
aF110.730003
aF109.800003
aF110.629997
aI75500
aF110.416963
aa(lp979
S'2017-01-05'
p980
aF110.639999
aF110.940002
aF110.129997
aF110.389999
aI69400
aF110.177427
aa(lp981
S'2017-01-06'
p982
aF110.5
aF111.389999
aF110.019997
aF111.080002
aI51500
aF110.866101
aa(lp983
S'2017-01-09'
p984
aF111.32
aF111.529999
aF111.07
aF111.209999
aI70200
aF110.995848
aa(lp985
S'2017-01-10'
p986
aF111.290001
aF111.620003
aF110.989998
aF111.169998
aI55500
aF110.955924
aa(lp987
S'2017-01-11'
p988
aF111.160004
aF111.800003
aF110.989998
aF111.800003
aI56700
aF111.584716
aa(lp989
S'2017-01-12'
p990
aF111.489998
aF111.650002
aF110.25
aF111.589996
aI90500
aF111.375113
aa(lp991
S'2017-01-13'
p992
aF111.610001
aF112.25
aF111.610001
aF112.139999
aI38800
aF111.924057
aa(lp993
S'2017-01-17'
p994
aF112.129997
aF112.129997
aF110.849998
aF111.169998
aI46200
aF110.955924
aa(lp995
S'2017-01-18'
p996
aF111.379997
aF112.019997
aF111.169998
aF111.970001
aI145400
aF111.754386
aa(lp997
S'2017-01-19'
p998
aF111.860001
aF112.279999
aF111.379997
aF111.599998
aI84000
aF111.385096
aa(lp999
S'2017-01-20'
p1000
aF112.059998
aF112.720001
aF111.989998
aF112.349998
aI107300
aF112.133652
aa(lp1001
S'2017-01-23'
p1002
aF112.18
aF112.449997
aF111.400002
aF112.010002
aI49500
aF111.79431
aa(lp1003
S'2017-01-24'
p1004
aF112.379997
aF113.639999
aF112.379997
aF113.470001
aI177100
aF113.251498
aa(lp1005
S'2017-01-25'
p1006
aF114.360001
aF114.93
aF114.279999
aF114.639999
aI82800
aF114.419243
aa(lp1007
S'2017-01-26'
p1008
aF114.699997
aF114.699997
aF113.589996
aF113.610001
aI55500
aF113.391228
aa(lp1009
S'2017-01-27'
p1010
aF113.779999
aF114.230003
aF113.779999
aF114.18
aI83300
aF113.96013
aa(lp1011
S'2017-01-30'
p1012
aF113.800003
aF113.809998
aF112.75
aF113.769997
aI51800
aF113.550916
aa(lp1013
S'2017-01-31'
p1014
aF113.370003
aF113.389999
aF112.529999
aF113.330002
aI41500
aF113.111768
aa(lp1015
S'2017-02-01'
p1016
aF113.739998
aF113.989998
aF112.800003
aF113.410004
aI195900
aF113.191616
aa(lp1017
S'2017-02-02'
p1018
aF112.860001
aF114.0
aF112.529999
aF113.959999
aI63400
aF113.740552
aa(lp1019
S'2017-02-03'
p1020
aF114.300003
aF114.93
aF114.300003
aF114.790001
aI72000
aF114.568956
aa(lp1021
S'2017-02-06'
p1022
aF114.660004
aF114.790001
aF114.389999
aF114.709999
aI35300
aF114.489108
aa(lp1023
S'2017-02-07'
p1024
aF114.93
aF115.150002
aF114.669998
aF115.089996
aI109900
aF114.868374
aa(lp1025
S'2017-02-08'
p1026
aF115.129997
aF115.410004
aF114.449997
aF115.169998
aI55900
aF114.948221
aa(lp1027
S'2017-02-09'
p1028
aF115.169998
aF116.169998
aF115.169998
aF115.709999
aI40800
aF115.487182
aa(lp1029
S'2017-02-10'
p1030
aF116.199997
aF116.300003
aF115.559998
aF116.129997
aI40100
aF115.906372
aa(lp1031
S'2017-02-13'
p1032
aF116.419998
aF116.860001
aF116.419998
aF116.68
aI92200
aF116.455316
aa(lp1033
S'2017-02-14'
p1034
aF116.459999
aF116.739998
aF116.160004
aF116.529999
aI41600
aF116.305603
aa(lp1035
S'2017-02-15'
p1036
aF116.629997
aF117.5
aF116.459999
aF117.379997
aI45000
aF117.153965
aa(lp1037
S'2017-02-16'
p1038
aF117.57
aF117.870003
aF117.029999
aF117.370003
aI42900
aF117.14399
aa(lp1039
S'2017-02-17'
p1040
aF117.209999
aF117.730003
aF116.910004
aF117.730003
aI60700
aF117.503297
aa(lp1041
S'2017-02-21'
p1042
aF118.059998
aF118.860001
aF118.0
aF118.800003
aI49200
aF118.571236
aa(lp1043
S'2017-02-22'
p1044
aF118.589996
aF118.769997
aF118.459999
aF118.709999
aI31200
aF118.481406
aa(lp1045
S'2017-02-23'
p1046
aF118.949997
aF118.949997
aF118.099998
aF118.620003
aI115300
aF118.391582
aa(lp1047
S'2017-02-24'
p1048
aF117.900002
aF119.169998
aF117.519997
aF119.169998
aI43800
aF118.940519
aa(lp1049
S'2017-02-27'
p1050
aF119.050003
aF119.199997
aF118.760002
aF119.199997
aI39700
aF118.97046
aa(lp1051
S'2017-02-28'
p1052
aF119.0
aF119.0
aF118.239998
aF118.459999
aI53100
aF118.231887
aa(lp1053
S'2017-03-01'
p1054
aF119.260002
aF120.389999
aF119.059998
aF120.160004
aI82200
aF119.928618
aa(lp1055
S'2017-03-02'
p1056
aF120.190002
aF120.190002
aF119.239998
aF119.349998
aI82000
aF119.120172
aa(lp1057
S'2017-03-03'
p1058
aF119.260002
aF119.559998
aF118.970001
aF119.519997
aI71400
aF119.289843
aa(lp1059
S'2017-03-06'
p1060
aF119.190002
aF119.440002
aF118.629997
aF119.279999
aI70900
aF119.050308
aa(lp1061
S'2017-03-07'
p1062
aF119.07
aF119.57
aF118.980003
aF119.18
aI50200
aF118.950502
aa(lp1063
S'2017-03-08'
p1064
aF119.300003
aF119.639999
aF119.139999
aF119.230003
aI48600
aF119.000408
aa(lp1065
S'2017-03-09'
p1066
aF119.290001
aF119.379997
aF118.550003
aF119.110001
aI70300
aF118.880637
aa(lp1067
S'2017-03-10'
p1068
aF119.720001
aF120.099998
aF119.300003
aF119.790001
aI32900
aF119.559328
aa(lp1069
S'2017-03-13'
p1070
aF119.75
aF120.459999
aF119.75
aF120.449997
aI49100
aF120.218053
aa(lp1071
S'2017-03-14'
p1072
aF120.139999
aF120.139999
aF119.379997
aF119.970001
aI31700
aF119.738981
aa(lp1073
S'2017-03-15'
p1074
aF120.209999
aF121.099998
aF119.769997
aF120.940002
aI52300
aF120.707115
aa(lp1075
S'2017-03-16'
p1076
aF121.290001
aF121.389999
aF120.779999
aF121.0
aI58300
aF120.766997
aa(lp1077
S'2017-03-17'
p1078
aF121.129997
aF121.169998
aF120.809998
aF120.870003
aI91600
aF120.870003
aa(lp1079
S'2017-03-20'
p1080
aF120.839996
aF121.25
aF120.620003
aF120.910004
aI57100
aF120.910004
aa(lp1081
S'2017-03-21'
p1082
aF121.290001
aF121.349998
aF118.589996
aF118.730003
aI84400
aF118.730003
aa(lp1083
S'2017-03-22'
p1084
aF118.589996
aF119.68
aF118.589996
aF119.660004
aI84500
aF119.660004
aa(lp1085
S'2017-03-23'
p1086
aF119.5
aF120.150002
aF119.360001
aF119.660004
aI125000
aF119.660004
aa(lp1087
S'2017-03-24'
p1088
aF120.360001
aF120.870003
aF119.519997
aF119.870003
aI27500
aF119.870003
aa(lp1089
S'2017-03-27'
p1090
aF119.019997
aF119.940002
aF118.400002
aF119.769997
aI111100
aF119.769997
aa(lp1091
S'2017-03-28'
p1092
aF119.769997
aF120.809998
aF119.769997
aF120.5
aI62500
aF120.5
aa(lp1093
S'2017-03-29'
p1094
aF120.550003
aF120.589996
aF119.949997
aF120.540001
aI121600
aF120.540001
aa(lp1095
S'2017-03-30'
p1096
aF120.669998
aF121.150002
aF120.489998
aF121.050003
aI101300
aF121.050003
aa(lp1097
S'2017-03-31'
p1098
aF120.989998
aF121.18
aF120.690002
aF120.790001
aI108700
aF120.790001
aa(lp1099
S'2017-04-03'
p1100
aF120.940002
aF121.029999
aF119.260002
aF120.010002
aI186500
aF120.010002
aa(lp1101
S'2017-04-04'
p1102
aF119.760002
aF120.190002
aF119.610001
aF119.900002
aI91600
aF119.900002
aa(lp1103
S'2017-04-05'
p1104
aF120.279999
aF121.150002
aF119.400002
aF119.559998
aI74700
aF119.559998
aa(lp1105
S'2017-04-06'
p1106
aF119.639999
aF120.040001
aF119.059998
aF119.800003
aI40600
aF119.800003
aa(lp1107
S'2017-04-07'
p1108
aF119.760002
aF120.199997
aF119.410004
aF120.019997
aI49400
aF120.019997
aa(lp1109
S'2017-04-10'
p1110
aF120.099998
aF120.419998
aF119.510002
aF119.769997
aI58700
aF119.769997
aa(lp1111
S'2017-04-11'
p1112
aF119.660004
aF119.660004
aF118.360001
aF119.449997
aI63600
aF119.449997
aa(lp1113
S'2017-04-12'
p1114
aF119.519997
aF119.519997
aF118.529999
aF118.709999
aI55300
aF118.709999
aa(lp1115
S'2017-04-13'
p1116
aF118.5
aF119.410004
aF118.330002
aF118.339996
aI60400
aF118.339996
aa(lp1117
S'2017-04-17'
p1118
aF118.720001
aF119.389999
aF118.699997
aF119.389999
aI58200
aF119.389999
aa(lp1119
S'2017-04-18'
p1120
aF119.050003
aF119.559998
aF119.0
aF119.459999
aI28900
aF119.459999
aa(lp1121
S'2017-04-19'
p1122
aF119.959999
aF120.489998
aF119.779999
aF119.870003
aI56000
aF119.870003
aa(lp1123
S'2017-04-20'
p1124
aF120.370003
aF121.370003
aF120.120003
aF121.18
aI60000
aF121.18
aa(lp1125
S'2017-04-21'
p1126
aF121.199997
aF121.199997
aF120.639999
aF120.809998
aI111000
aF120.809998
aa(lp1127
S'2017-04-24'
p1128
aF122.089996
aF122.43
aF121.959999
aF122.32
aI43100
aF122.32
aa(lp1129
S'2017-04-25'
p1130
aF122.809998
aF123.230003
aF122.580002
aF123.089996
aI102200
aF123.089996
aa(lp1131
S'2017-04-26'
p1132
aF122.870003
aF123.089996
aF122.480003
aF122.739998
aI55300
aF122.739998
aa(lp1133
S'2017-04-27'
p1134
aF123.099998
aF123.43
aF122.860001
aF123.370003
aI95500
aF123.370003
aa(lp1135
S'2017-04-28'
p1136
aF123.360001
aF123.360001
aF122.279999
aF122.949997
aI475600
aF122.949997
aa(lp1137
S'2017-05-01'
p1138
aF123.220001
aF123.639999
aF122.760002
aF123.57
aI82800
aF123.57
aa(lp1139
S'2017-05-02'
p1140
aF123.510002
aF123.510002
aF122.769997
aF123.18
aI118600
aF123.18
aa(lp1141
S'2017-05-03'
p1142
aF122.989998
aF122.989998
aF122.339996
aF122.720001
aI63500
aF122.720001
aaa(lp1143
(lp1144
S'2015-02-02'
p1145
aF41.099998
aF41.099998
aF40.299999
aF41.0
aI176300
aF40.521464
aa(lp1146
S'2015-02-03'
p1147
aF41.220001
aF41.389999
aF40.93
aF41.369999
aI260700
aF40.887145
aa(lp1148
S'2015-02-04'
p1149
aF41.150002
aF41.529999
aF41.049999
aF41.330002
aI130900
aF40.847614
aa(lp1150
S'2015-02-05'
p1151
aF41.540001
aF41.889999
aF41.540001
aF41.84
aI210500
aF41.35166
aa(lp1152
S'2015-02-06'
p1153
aF41.919998
aF42.0
aF41.529999
aF41.639999
aI197800
aF41.153994
aa(lp1154
S'2015-02-09'
p1155
aF41.48
aF41.5
aF41.150002
aF41.25
aI211100
aF40.768546
aa(lp1156
S'2015-02-10'
p1157
aF41.509998
aF41.919998
aF41.439999
aF41.880001
aI250100
aF41.391194
aa(lp1158
S'2015-02-11'
p1159
aF41.880001
aF42.09
aF41.759998
aF41.98
aI515800
aF41.490026
aa(lp1160
S'2015-02-12'
p1161
aF42.139999
aF42.27
aF41.959999
aF42.240002
aI468600
aF41.746993
aa(lp1162
S'2015-02-13'
p1163
aF42.27
aF42.52
aF42.220001
aF42.52
aI254700
aF42.023724
aa(lp1164
S'2015-02-17'
p1165
aF42.529999
aF42.599998
aF42.349998
aF42.48
aI331600
aF41.98419
aa(lp1166
S'2015-02-18'
p1167
aF42.450001
aF42.779999
aF42.400002
aF42.75
aI172000
aF42.251039
aa(lp1168
S'2015-02-19'
p1169
aF42.84
aF42.93
aF42.77
aF42.799999
aI264100
aF42.300455
aa(lp1170
S'2015-02-20'
p1171
aF42.779999
aF43.23
aF42.630001
aF43.23
aI323700
aF42.725436
aa(lp1172
S'2015-02-23'
p1173
aF43.209999
aF43.380001
aF43.209999
aF43.349998
aI413100
aF42.844035
aa(lp1174
S'2015-02-24'
p1175
aF43.299999
aF43.369999
aF43.150002
aF43.310001
aI655100
aF42.804504
aa(lp1176
S'2015-02-25'
p1177
aF43.369999
aF43.549999
aF43.259998
aF43.389999
aI219600
aF42.883569
aa(lp1178
S'2015-02-26'
p1179
aF43.389999
aF43.509998
aF43.259998
aF43.43
aI195500
aF42.923103
aa(lp1180
S'2015-02-27'
p1181
aF43.439999
aF43.509998
aF43.169998
aF43.189999
aI190900
aF42.685902
aa(lp1182
S'2015-03-02'
p1183
aF43.23
aF43.68
aF43.209999
aF43.68
aI236500
aF43.170185
aa(lp1184
S'2015-03-03'
p1185
aF43.59
aF43.59
aF43.150002
aF43.43
aI453300
aF42.923103
aa(lp1186
S'2015-03-04'
p1187
aF43.310001
aF43.310001
aF43.02
aF43.209999
aI219200
aF42.705669
aa(lp1188
S'2015-03-05'
p1189
aF43.32
aF43.459999
aF43.23
aF43.389999
aI197400
aF42.883569
aa(lp1190
S'2015-03-06'
p1191
aF43.290001
aF43.299999
aF42.759998
aF42.810001
aI442900
aF42.31034
aa(lp1192
S'2015-03-09'
p1193
aF42.869999
aF43.130001
aF42.869999
aF43.07
aI227900
aF42.567304
aa(lp1194
S'2015-03-10'
p1195
aF42.790001
aF42.790001
aF42.5
aF42.529999
aI179200
aF42.033606
aa(lp1196
S'2015-03-11'
p1197
aF42.650002
aF42.650002
aF42.450001
aF42.490002
aI155000
aF41.994075
aa(lp1198
S'2015-03-12'
p1199
aF42.639999
aF43.150002
aF42.639999
aF43.139999
aI240500
aF42.636486
aa(lp1200
S'2015-03-13'
p1201
aF43.150002
aF43.290001
aF42.740002
aF42.990002
aI233300
aF42.488239
aa(lp1202
S'2015-03-16'
p1203
aF43.200001
aF43.650002
aF43.200001
aF43.650002
aI209900
aF43.140536
aa(lp1204
S'2015-03-17'
p1205
aF43.639999
aF43.880001
aF43.509998
aF43.799999
aI157700
aF43.288783
aa(lp1206
S'2015-03-18'
p1207
aF43.759998
aF44.34
aF43.450001
aF44.130001
aI615500
aF43.614933
aa(lp1208
S'2015-03-19'
p1209
aF44.16
aF44.349998
aF44.119999
aF44.34
aI220400
aF43.822481
aa(lp1210
S'2015-03-20'
p1211
aF44.549999
aF44.610001
aF44.400002
aF44.549999
aI368200
aF44.076751
aa(lp1212
S'2015-03-23'
p1213
aF44.549999
aF44.549999
aF44.240002
aF44.259998
aI181500
aF43.789831
aa(lp1214
S'2015-03-24'
p1215
aF44.259998
aF44.330002
aF43.990002
aF44.0
aI236700
aF43.532594
aa(lp1216
S'2015-03-25'
p1217
aF44.0
aF44.07
aF43.07
aF43.09
aI251600
aF42.632261
aa(lp1218
S'2015-03-26'
p1219
aF42.860001
aF43.220001
aF42.59
aF42.98
aI293600
aF42.523429
aa(lp1220
S'2015-03-27'
p1221
aF43.0
aF43.490002
aF43.0
aF43.439999
aI158400
aF42.978542
aa(lp1222
S'2015-03-30'
p1223
aF43.689999
aF43.919998
aF43.66
aF43.860001
aI504900
aF43.394082
aa(lp1224
S'2015-03-31'
p1225
aF43.82
aF43.82
aF43.400002
aF43.43
aI493500
aF42.96865
aa(lp1226
S'2015-04-01'
p1227
aF43.369999
aF43.369999
aF42.790001
aF43.07
aI382000
aF42.612473
aa(lp1228
S'2015-04-02'
p1229
aF43.16
aF43.419998
aF43.110001
aF43.240002
aI185900
aF42.780669
aa(lp1230
S'2015-04-06'
p1231
aF43.060001
aF43.509998
aF42.939999
aF43.400002
aI151900
aF42.938969
aa(lp1232
S'2015-04-07'
p1233
aF43.439999
aF43.59
aF43.23
aF43.25
aI163800
aF42.790561
aa(lp1234
S'2015-04-08'
p1235
aF43.330002
aF43.720001
aF43.330002
aF43.720001
aI169200
aF43.25557
aa(lp1236
S'2015-04-09'
p1237
aF43.700001
aF43.869999
aF43.48
aF43.75
aI364800
aF43.28525
aa(lp1238
S'2015-04-10'
p1239
aF43.84
aF44.0
aF43.75
aF43.959999
aI209800
aF43.493018
aa(lp1240
S'2015-04-13'
p1241
aF43.950001
aF44.130001
aF43.779999
aF43.810001
aI230700
aF43.344614
aa(lp1242
S'2015-04-14'
p1243
aF43.720001
aF43.849998
aF43.43
aF43.650002
aI417700
aF43.186314
aa(lp1244
S'2015-04-15'
p1245
aF43.75
aF43.860001
aF43.639999
aF43.650002
aI206300
aF43.186314
aa(lp1246
S'2015-04-16'
p1247
aF43.580002
aF43.75
aF43.540001
aF43.689999
aI298100
aF43.225886
aa(lp1248
S'2015-04-17'
p1249
aF43.580002
aF43.580002
aF43.040001
aF43.200001
aI184200
aF42.741093
aa(lp1250
S'2015-04-20'
p1251
aF43.490002
aF43.669998
aF43.41
aF43.619999
aI236300
aF43.15663
aa(lp1252
S'2015-04-21'
p1253
aF43.799999
aF43.799999
aF43.610001
aF43.740002
aI165600
aF43.275358
aa(lp1254
S'2015-04-22'
p1255
aF43.790001
aF43.799999
aF43.439999
aF43.779999
aI133700
aF43.31493
aa(lp1256
S'2015-04-23'
p1257
aF43.77
aF44.200001
aF43.77
aF44.110001
aI104900
aF43.641426
aa(lp1258
S'2015-04-24'
p1259
aF44.110001
aF44.130001
aF43.970001
aF44.080002
aI160900
aF43.611746
aa(lp1260
S'2015-04-27'
p1261
aF44.18
aF44.240002
aF43.57
aF43.630001
aI237200
aF43.166526
aa(lp1262
S'2015-04-28'
p1263
aF43.529999
aF43.599998
aF43.0
aF43.459999
aI150100
aF42.99833
aa(lp1264
S'2015-04-29'
p1265
aF43.27
aF43.400002
aF42.869999
aF43.07
aI552000
aF42.612473
aa(lp1266
S'2015-04-30'
p1267
aF42.939999
aF43.049999
aF42.240002
aF42.43
aI320000
aF41.979272
aa(lp1268
S'2015-05-01'
p1269
aF42.639999
aF43.139999
aF42.639999
aF43.130001
aI564500
aF42.671837
aa(lp1270
S'2015-05-04'
p1271
aF43.25
aF43.48
aF43.169998
aF43.200001
aI363000
aF42.741093
aa(lp1272
S'2015-05-05'
p1273
aF43.110001
aF43.150002
aF42.5
aF42.52
aI158900
aF42.068316
aa(lp1274
S'2015-05-06'
p1275
aF42.599998
aF42.619999
aF42.150002
aF42.389999
aI350300
aF41.939696
aa(lp1276
S'2015-05-07'
p1277
aF42.400002
aF42.84
aF42.400002
aF42.759998
aI223500
aF42.305765
aa(lp1278
S'2015-05-08'
p1279
aF43.029999
aF43.349998
aF43.0
aF43.16
aI248700
aF42.701517
aa(lp1280
S'2015-05-11'
p1281
aF43.200001
aF43.32
aF43.09
aF43.110001
aI144000
aF42.652049
aa(lp1282
S'2015-05-12'
p1283
aF42.880001
aF43.110001
aF42.669998
aF42.950001
aI182100
aF42.493749
aa(lp1284
S'2015-05-13'
p1285
aF43.09
aF43.209999
aF42.810001
aF42.82
aI111200
aF42.365129
aa(lp1286
S'2015-05-14'
p1287
aF43.07
aF43.330002
aF42.860001
aF43.310001
aI212600
aF42.849925
aa(lp1288
S'2015-05-15'
p1289
aF43.349998
aF43.360001
aF43.209999
aF43.34
aI297000
aF42.879605
aa(lp1290
S'2015-05-18'
p1291
aF43.310001
aF43.700001
aF43.299999
aF43.669998
aI187600
aF43.206098
aa(lp1292
S'2015-05-19'
p1293
aF43.75
aF43.830002
aF43.619999
aF43.68
aI126800
aF43.215994
aa(lp1294
S'2015-05-20'
p1295
aF43.740002
aF43.810001
aF43.529999
aF43.610001
aI131100
aF43.146738
aa(lp1296
S'2015-05-21'
p1297
aF43.610001
aF43.77
aF43.57
aF43.720001
aI113500
aF43.25557
aa(lp1298
S'2015-05-22'
p1299
aF43.68
aF43.799999
aF43.619999
aF43.689999
aI120000
aF43.225886
aa(lp1300
S'2015-05-26'
p1301
aF43.610001
aF43.610001
aF43.119999
aF43.189999
aI107800
aF42.731197
aa(lp1302
S'2015-05-27'
p1303
aF43.290001
aF43.599998
aF43.27
aF43.580002
aI101700
aF43.117058
aa(lp1304
S'2015-05-28'
p1305
aF43.509998
aF43.599998
aF43.400002
aF43.57
aI84100
aF43.107162
aa(lp1306
S'2015-05-29'
p1307
aF43.540001
aF43.540001
aF43.220001
aF43.290001
aI131500
aF42.830137
aa(lp1308
S'2015-06-01'
p1309
aF43.48
aF43.59
aF43.130001
aF43.459999
aI115400
aF42.99833
aa(lp1310
S'2015-06-02'
p1311
aF43.310001
aF43.490002
aF43.16
aF43.34
aI132600
aF42.879605
aa(lp1312
S'2015-06-03'
p1313
aF43.459999
aF43.560001
aF43.290001
aF43.490002
aI253300
aF43.028014
aa(lp1314
S'2015-06-04'
p1315
aF43.330002
aF43.450001
aF43.02
aF43.07
aI168900
aF42.612473
aa(lp1316
S'2015-06-05'
p1317
aF43.040001
aF43.200001
aF42.830002
aF43.16
aI104000
aF42.701517
aa(lp1318
S'2015-06-08'
p1319
aF43.110001
aF43.139999
aF42.75
aF42.75
aI75500
aF42.295873
aa(lp1320
S'2015-06-09'
p1321
aF42.689999
aF42.73
aF42.41
aF42.650002
aI613500
aF42.196937
aa(lp1322
S'2015-06-10'
p1323
aF42.869999
aF43.34
aF42.84
aF43.299999
aI131500
aF42.840029
aa(lp1324
S'2015-06-11'
p1325
aF43.400002
aF43.529999
aF43.380001
aF43.43
aI115100
aF42.96865
aa(lp1326
S'2015-06-12'
p1327
aF43.259998
aF43.389999
aF43.200001
aF43.279999
aI104000
aF42.820241
aa(lp1328
S'2015-06-15'
p1329
aF43.07
aF43.16
aF42.810001
aF43.09
aI88600
aF42.632261
aa(lp1330
S'2015-06-16'
p1331
aF43.060001
aF43.360001
aF43.060001
aF43.330002
aI160600
aF42.869713
aa(lp1332
S'2015-06-17'
p1333
aF43.419998
aF43.610001
aF43.27
aF43.540001
aI246800
aF43.077482
aa(lp1334
S'2015-06-18'
p1335
aF43.650002
aF44.200001
aF43.630001
aF44.07
aI153000
aF43.60185
aa(lp1336
S'2015-06-19'
p1337
aF43.98
aF44.130001
aF43.939999
aF43.939999
aI100700
aF43.526564
aa(lp1338
S'2015-06-22'
p1339
aF44.220001
aF44.299999
aF44.130001
aF44.189999
aI143200
aF43.774212
aa(lp1340
S'2015-06-23'
p1341
aF44.290001
aF44.299999
aF44.139999
aF44.240002
aI125300
aF43.823744
aa(lp1342
S'2015-06-24'
p1343
aF44.18
aF44.200001
aF43.790001
aF43.790001
aI166000
aF43.377978
aa(lp1344
S'2015-06-25'
p1345
aF43.93
aF43.939999
aF43.68
aF43.759998
aI154500
aF43.348257
aa(lp1346
S'2015-06-26'
p1347
aF43.849998
aF43.939999
aF43.639999
aF43.810001
aI109100
aF43.39779
aa(lp1348
S'2015-06-29'
p1349
aF43.450001
aF43.619999
aF42.82
aF42.849998
aI320400
aF42.44682
aa(lp1350
S'2015-06-30'
p1351
aF43.209999
aF43.299999
aF42.959999
aF43.060001
aI158400
aF42.654847
aa(lp1352
S'2015-07-01'
p1353
aF43.419998
aF43.459999
aF43.169998
aF43.349998
aI384200
aF42.942115
aa(lp1354
S'2015-07-02'
p1355
aF43.389999
aF43.459999
aF43.110001
aF43.259998
aI165600
aF42.852962
aa(lp1356
S'2015-07-06'
p1357
aF42.959999
aF43.419998
aF42.91
aF43.189999
aI114600
aF42.783621
aa(lp1358
S'2015-07-07'
p1359
aF43.299999
aF43.389999
aF42.639999
aF43.380001
aI317400
aF42.971836
aa(lp1360
S'2015-07-08'
p1361
aF43.09
aF43.169998
aF42.5
aF42.560001
aI250100
aF42.159551
aa(lp1362
S'2015-07-09'
p1363
aF43.009998
aF43.119999
aF42.709999
aF42.73
aI125200
aF42.32795
aa(lp1364
S'2015-07-10'
p1365
aF43.18
aF43.400002
aF43.119999
aF43.369999
aI117900
aF42.961928
aa(lp1366
S'2015-07-13'
p1367
aF43.66
aF43.91
aF43.66
aF43.889999
aI228100
aF43.477035
aa(lp1368
S'2015-07-14'
p1369
aF43.889999
aF44.220001
aF43.889999
aF44.150002
aI170200
aF43.734591
aa(lp1370
S'2015-07-15'
p1371
aF44.240002
aF44.290001
aF44.040001
aF44.080002
aI156400
aF43.66525
aa(lp1372
S'2015-07-16'
p1373
aF44.209999
aF44.310001
aF44.099998
aF44.299999
aI302500
aF43.883177
aa(lp1374
S'2015-07-17'
p1375
aF44.290001
aF44.290001
aF44.049999
aF44.18
aI266900
aF43.764308
aa(lp1376
S'2015-07-20'
p1377
aF44.279999
aF44.43
aF44.18
aF44.32
aI219600
aF43.90299
aa(lp1378
S'2015-07-21'
p1379
aF44.310001
aF44.34
aF43.990002
aF44.080002
aI172900
aF43.66525
aa(lp1380
S'2015-07-22'
p1381
aF43.849998
aF44.23
aF43.799999
aF44.18
aI470500
aF43.764308
aa(lp1382
S'2015-07-23'
p1383
aF44.330002
aF44.490002
aF44.02
aF44.049999
aI168300
aF43.63553
aa(lp1384
S'2015-07-24'
p1385
aF44.110001
aF44.139999
aF43.470001
aF43.59
aI437500
aF43.179859
aa(lp1386
S'2015-07-27'
p1387
aF43.369999
aF43.369999
aF43.060001
aF43.150002
aI180900
aF42.744
aa(lp1388
S'2015-07-28'
p1389
aF43.400002
aF43.790001
aF43.209999
aF43.740002
aI332000
aF43.328449
aa(lp1390
S'2015-07-29'
p1391
aF43.889999
aF43.950001
aF43.560001
aF43.93
aI278600
aF43.51666
aa(lp1392
S'2015-07-30'
p1393
aF43.810001
aF44.060001
aF43.619999
aF44.040001
aI122400
aF43.625625
aa(lp1394
S'2015-07-31'
p1395
aF44.150002
aF44.259998
aF44.040001
aF44.099998
aI141200
aF43.685059
aa(lp1396
S'2015-08-03'
p1397
aF44.150002
aF44.150002
aF43.619999
aF43.91
aI162800
aF43.496848
aa(lp1398
S'2015-08-04'
p1399
aF43.959999
aF44.16
aF43.880001
aF44.009998
aI152100
aF43.595905
aa(lp1400
S'2015-08-05'
p1401
aF44.200001
aF44.509998
aF44.200001
aF44.299999
aI232200
aF43.883177
aa(lp1402
S'2015-08-06'
p1403
aF44.360001
aF44.360001
aF43.43
aF43.549999
aI190400
aF43.140234
aa(lp1404
S'2015-08-07'
p1405
aF43.529999
aF43.59
aF43.25
aF43.549999
aI142700
aF43.140234
aa(lp1406
S'2015-08-10'
p1407
aF43.810001
aF44.040001
aF43.810001
aF43.950001
aI137000
aF43.536472
aa(lp1408
S'2015-08-11'
p1409
aF43.610001
aF43.720001
aF43.32
aF43.48
aI273000
aF43.070893
aa(lp1410
S'2015-08-12'
p1411
aF43.139999
aF43.490002
aF42.66
aF43.43
aI286600
aF43.021364
aa(lp1412
S'2015-08-13'
p1413
aF43.439999
aF43.869999
aF43.349998
aF43.66
aI198800
aF43.2492
aa(lp1414
S'2015-08-14'
p1415
aF43.580002
aF43.880001
aF43.540001
aF43.860001
aI83200
aF43.447319
aa(lp1416
S'2015-08-17'
p1417
aF43.759998
aF44.209999
aF43.619999
aF44.209999
aI530400
aF43.794024
aa(lp1418
S'2015-08-18'
p1419
aF44.150002
aF44.259998
aF44.009998
aF44.040001
aI128300
aF43.625625
aa(lp1420
S'2015-08-19'
p1421
aF43.900002
aF44.130001
aF43.59
aF43.880001
aI115600
aF43.467131
aa(lp1422
S'2015-08-20'
p1423
aF43.509998
aF43.57
aF42.779999
aF42.790001
aI342900
aF42.387387
aa(lp1424
S'2015-08-21'
p1425
aF42.450001
aF42.5
aF41.360001
aF41.360001
aI1061400
aF40.970841
aa(lp1426
S'2015-08-24'
p1427
aF38.369999
aF41.130001
aF26.59
aF39.900002
aI2520300
aF39.52458
aa(lp1428
S'2015-08-25'
p1429
aF40.689999
aF41.150002
aF39.790001
aF39.810001
aI1040800
aF39.435426
aa(lp1430
S'2015-08-26'
p1431
aF40.599998
aF41.09
aF39.790001
aF41.029999
aI421300
aF40.643945
aa(lp1432
S'2015-08-27'
p1433
aF41.549999
aF42.130001
aF41.330002
aF42.0
aI714300
aF41.604819
aa(lp1434
S'2015-08-28'
p1435
aF41.830002
aF42.18
aF41.779999
aF42.07
aI423800
aF41.67416
aa(lp1436
S'2015-08-31'
p1437
aF41.889999
aF42.040001
aF41.490002
aF41.540001
aI621900
aF41.149148
aa(lp1438
S'2015-09-01'
p1439
aF40.740002
aF41.060001
aF40.259998
aF40.450001
aI779400
aF40.069404
aa(lp1440
S'2015-09-02'
p1441
aF40.889999
aF41.259998
aF40.610001
aF41.259998
aI396200
aF40.87178
aa(lp1442
S'2015-09-03'
p1443
aF41.419998
aF41.73
aF41.169998
aF41.330002
aI221800
aF40.941125
aa(lp1444
S'2015-09-04'
p1445
aF40.869999
aF41.110001
aF40.619999
aF40.830002
aI109600
aF40.445829
aa(lp1446
S'2015-09-08'
p1447
aF41.470001
aF41.919998
aF41.330002
aF41.880001
aI234100
aF41.485949
aa(lp1448
S'2015-09-09'
p1449
aF42.25
aF42.299999
aF41.380001
aF41.459999
aI316200
aF41.069899
aa(lp1450
S'2015-09-10'
p1451
aF41.400002
aF41.869999
aF41.389999
aF41.639999
aI356900
aF41.248206
aa(lp1452
S'2015-09-11'
p1453
aF41.48
aF41.919998
aF41.41
aF41.919998
aI125600
aF41.52557
aa(lp1454
S'2015-09-14'
p1455
aF41.950001
aF41.950001
aF41.619999
aF41.740002
aI151400
aF41.347267
aa(lp1456
S'2015-09-15'
p1457
aF41.84
aF42.279999
aF41.650002
aF42.209999
aI260700
aF41.812842
aa(lp1458
S'2015-09-16'
p1459
aF42.369999
aF42.630001
aF42.18
aF42.619999
aI166400
aF42.218984
aa(lp1460
S'2015-09-17'
p1461
aF42.580002
aF43.16
aF42.52
aF42.610001
aI491700
aF42.20908
aa(lp1462
S'2015-09-18'
p1463
aF42.0
aF42.419998
aF41.93
aF42.0
aI334100
aF41.637065
aa(lp1464
S'2015-09-21'
p1465
aF42.209999
aF42.549999
aF41.75
aF42.029999
aI175200
aF41.666805
aa(lp1466
S'2015-09-22'
p1467
aF41.610001
aF41.700001
aF41.220001
aF41.48
aI109200
aF41.121558
aa(lp1468
S'2015-09-23'
p1469
aF41.48
aF41.619999
aF41.259998
aF41.41
aI117200
aF41.052164
aa(lp1470
S'2015-09-24'
p1471
aF41.139999
aF41.16
aF40.68
aF41.040001
aI141600
aF40.685362
aa(lp1472
S'2015-09-25'
p1473
aF41.459999
aF41.5
aF40.700001
aF40.98
aI130400
aF40.625879
aa(lp1474
S'2015-09-28'
p1475
aF40.720001
aF40.73
aF39.450001
aF39.59
aI541600
aF39.247891
aa(lp1476
S'2015-09-29'
p1477
aF39.669998
aF39.900002
aF39.099998
aF39.34
aI548600
aF39.000051
aa(lp1478
S'2015-09-30'
p1479
aF39.82
aF40.220001
aF39.68
aF40.18
aI338200
aF39.832793
aa(lp1480
S'2015-10-01'
p1481
aF40.200001
aF40.32
aF39.779999
aF40.290001
aI256900
aF39.941843
aa(lp1482
S'2015-10-02'
p1483
aF39.950001
aF40.830002
aF39.66
aF40.830002
aI202900
aF40.477177
aa(lp1484
S'2015-10-05'
p1485
aF41.09
aF41.299999
aF40.98
aF41.240002
aI273200
aF40.883634
aa(lp1486
S'2015-10-06'
p1487
aF41.220001
aF41.220001
aF40.490002
aF40.66
aI406800
aF40.308644
aa(lp1488
S'2015-10-07'
p1489
aF40.759998
aF40.950001
aF40.470001
aF40.900002
aI439600
aF40.546572
aa(lp1490
S'2015-10-08'
p1491
aF40.830002
aF41.330002
aF40.689999
aF41.25
aI177300
aF40.893546
aa(lp1492
S'2015-10-09'
p1493
aF41.27
aF41.540001
aF41.200001
aF41.439999
aI261400
aF41.081903
aa(lp1494
S'2015-10-12'
p1495
aF41.540001
aF41.82
aF41.41
aF41.75
aI193300
aF41.389226
aa(lp1496
S'2015-10-13'
p1497
aF41.540001
aF41.830002
aF41.299999
aF41.330002
aI106800
aF40.972857
aa(lp1498
S'2015-10-14'
p1499
aF41.34
aF41.490002
aF40.869999
aF40.919998
aI125600
aF40.566396
aa(lp1500
S'2015-10-15'
p1501
aF41.119999
aF41.490002
aF40.889999
aF41.490002
aI125600
aF41.131474
aa(lp1502
S'2015-10-16'
p1503
aF41.599998
aF41.75
aF41.48
aF41.720001
aI128200
aF41.359486
aa(lp1504
S'2015-10-19'
p1505
aF41.630001
aF41.939999
aF41.549999
aF41.900002
aI237700
aF41.537931
aa(lp1506
S'2015-10-20'
p1507
aF41.830002
aF41.98
aF41.619999
aF41.700001
aI79200
aF41.339658
aa(lp1508
S'2015-10-21'
p1509
aF41.790001
aF41.82
aF41.200001
aF41.41
aI168400
aF41.052164
aa(lp1510
S'2015-10-22'
p1511
aF41.610001
aF41.869999
aF41.43
aF41.84
aI224300
aF41.478448
aa(lp1512
S'2015-10-23'
p1513
aF42.099998
aF42.119999
aF41.790001
aF42.049999
aI254100
aF41.686632
aa(lp1514
S'2015-10-26'
p1515
aF42.02
aF42.32
aF41.970001
aF42.259998
aI293800
aF41.894817
aa(lp1516
S'2015-10-27'
p1517
aF42.130001
aF42.240002
aF41.98
aF42.189999
aI364200
aF41.825422
aa(lp1518
S'2015-10-28'
p1519
aF42.299999
aF42.73
aF42.189999
aF42.73
aI282700
aF42.360757
aa(lp1520
S'2015-10-29'
p1521
aF42.759998
aF42.869999
aF42.68
aF42.82
aI177500
aF42.449979
aa(lp1522
S'2015-10-30'
p1523
aF42.900002
aF42.98
aF42.740002
aF42.790001
aI557200
aF42.42024
aa(lp1524
S'2015-11-02'
p1525
aF42.82
aF43.209999
aF42.77
aF43.189999
aI910900
aF42.816781
aa(lp1526
S'2015-11-03'
p1527
aF43.09
aF43.189999
aF42.869999
aF43.060001
aI423200
aF42.687907
aa(lp1528
S'2015-11-04'
p1529
aF43.080002
aF43.119999
aF42.73
aF42.91
aI340400
aF42.539202
aa(lp1530
S'2015-11-05'
p1531
aF42.950001
aF43.02
aF42.66
aF42.939999
aI310500
aF42.568941
aa(lp1532
S'2015-11-06'
p1533
aF42.919998
aF42.950001
aF42.610001
aF42.93
aI271300
aF42.559029
aa(lp1534
S'2015-11-09'
p1535
aF42.75
aF42.779999
aF42.169998
aF42.389999
aI544900
aF42.023695
aa(lp1536
S'2015-11-10'
p1537
aF42.18
aF42.57
aF42.150002
aF42.560001
aI144700
aF42.192228
aa(lp1538
S'2015-11-11'
p1539
aF42.650002
aF42.650002
aF42.34
aF42.380001
aI193100
aF42.013783
aa(lp1540
S'2015-11-12'
p1541
aF42.110001
aF42.150002
aF41.610001
aF41.630001
aI501700
aF41.270264
aa(lp1542
S'2015-11-13'
p1543
aF41.509998
aF41.509998
aF41.080002
aF41.150002
aI212700
aF40.794412
aa(lp1544
S'2015-11-16'
p1545
aF41.049999
aF41.540001
aF40.990002
aF41.540001
aI197300
aF41.181041
aa(lp1546
S'2015-11-17'
p1547
aF41.630001
aF41.860001
aF41.470001
aF41.52
aI205600
aF41.161214
aa(lp1548
S'2015-11-18'
p1549
aF41.689999
aF42.259998
aF41.610001
aF42.23
aI227900
aF41.865077
aa(lp1550
S'2015-11-19'
p1551
aF42.23
aF42.450001
aF42.23
aF42.25
aI251100
aF41.884905
aa(lp1552
S'2015-11-20'
p1553
aF42.459999
aF42.68
aF42.43
aF42.5
aI219400
aF42.132745
aa(lp1554
S'2015-11-23'
p1555
aF42.509998
aF42.82
aF42.490002
aF42.599998
aI211300
aF42.231879
aa(lp1556
S'2015-11-24'
p1557
aF42.32
aF42.639999
aF42.16
aF42.599998
aI238300
aF42.231879
aa(lp1558
S'2015-11-25'
p1559
aF42.650002
aF42.82
aF42.650002
aF42.759998
aI198500
aF42.390496
aa(lp1560
S'2015-11-27'
p1561
aF42.779999
aF42.889999
aF42.68
aF42.84
aI35100
aF42.469807
aa(lp1562
S'2015-11-30'
p1563
aF42.869999
aF42.900002
aF42.450001
aF42.509998
aI215200
aF42.142657
aa(lp1564
S'2015-12-01'
p1565
aF42.669998
aF42.869999
aF42.560001
aF42.779999
aI510000
aF42.410324
aa(lp1566
S'2015-12-02'
p1567
aF42.790001
aF42.880001
aF42.450001
aF42.509998
aI332500
aF42.142657
aa(lp1568
S'2015-12-03'
p1569
aF42.610001
aF42.669998
aF41.650002
aF41.830002
aI254000
aF41.468536
aa(lp1570
S'2015-12-04'
p1571
aF41.91
aF42.650002
aF41.91
aF42.630001
aI114100
aF42.261622
aa(lp1572
S'2015-12-07'
p1573
aF42.540001
aF42.549999
aF42.27
aF42.419998
aI181100
aF42.053434
aa(lp1574
S'2015-12-08'
p1575
aF42.110001
aF42.529999
aF42.060001
aF42.400002
aI158600
aF42.03361
aa(lp1576
S'2015-12-09'
p1577
aF42.290001
aF42.650002
aF41.82
aF41.91
aI292200
aF41.547843
aa(lp1578
S'2015-12-10'
p1579
aF41.939999
aF42.18
aF41.860001
aF41.990002
aI190100
aF41.627153
aa(lp1580
S'2015-12-11'
p1581
aF41.529999
aF41.66
aF41.110001
aF41.209999
aI183500
aF40.853891
aa(lp1582
S'2015-12-14'
p1583
aF41.189999
aF41.360001
aF40.84
aF41.360001
aI211000
aF41.002596
aa(lp1584
S'2015-12-15'
p1585
aF41.619999
aF41.700001
aF41.389999
aF41.549999
aI360400
aF41.190953
aa(lp1586
S'2015-12-16'
p1587
aF41.75
aF42.18
aF41.580002
aF42.09
aI701200
aF41.726288
aa(lp1588
S'2015-12-17'
p1589
aF42.189999
aF42.209999
aF41.57
aF41.57
aI276400
aF41.210781
aa(lp1590
S'2015-12-18'
p1591
aF41.43
aF41.43
aF40.950001
aF40.950001
aI93900
aF40.621546
aa(lp1592
S'2015-12-21'
p1593
aF41.18
aF41.34
aF40.970001
aF41.18
aI393200
aF40.849701
aa(lp1594
S'2015-12-22'
p1595
aF41.349998
aF41.509998
aF40.990002
aF41.41
aI455800
aF41.077855
aa(lp1596
S'2015-12-23'
p1597
aF41.66
aF41.77
aF41.52
aF41.759998
aI226400
aF41.425046
aa(lp1598
S'2015-12-24'
p1599
aF41.689999
aF41.75
aF41.560001
aF41.650002
aI98100
aF41.315932
aa(lp1600
S'2015-12-28'
p1601
aF41.5
aF41.709999
aF41.349998
aF41.709999
aI209700
aF41.375448
aa(lp1602
S'2015-12-29'
p1603
aF41.860001
aF42.16
aF41.860001
aF42.099998
aI258700
aF41.76232
aa(lp1604
S'2015-12-30'
p1605
aF42.07
aF42.09
aF41.810001
aF41.84
aI200600
aF41.504407
aa(lp1606
S'2015-12-31'
p1607
aF41.700001
aF41.830002
aF41.369999
aF41.369999
aI321600
aF41.038175
aa(lp1608
S'2016-01-04'
p1609
aF40.77
aF40.799999
aF40.139999
aF40.470001
aI1264300
aF40.145396
aa(lp1610
S'2016-01-05'
p1611
aF40.59
aF40.740002
aF40.41
aF40.59
aI432200
aF40.264433
aa(lp1612
S'2016-01-06'
p1613
aF40.060001
aF40.360001
aF39.880001
aF40.130001
aI301400
aF39.808123
aa(lp1614
S'2016-01-07'
p1615
aF39.540001
aF39.84
aF39.119999
aF39.169998
aI725500
aF38.85582
aa(lp1616
S'2016-01-08'
p1617
aF39.349998
aF39.450001
aF38.669998
aF38.720001
aI1159600
aF38.409433
aa(lp1618
S'2016-01-11'
p1619
aF38.91
aF39.060001
aF38.16
aF38.610001
aI2189700
aF38.300315
aa(lp1620
S'2016-01-12'
p1621
aF38.93
aF39.189999
aF38.52
aF39.049999
aI983100
aF38.736784
aa(lp1622
S'2016-01-13'
p1623
aF39.130001
aF39.169998
aF37.790001
aF37.889999
aI1329300
aF37.586088
aa(lp1624
S'2016-01-14'
p1625
aF38.009998
aF38.639999
aF37.48
aF38.34
aI972500
aF38.03248
aa(lp1626
S'2016-01-15'
p1627
aF37.57
aF37.849998
aF37.200001
aF37.740002
aI700400
aF37.437294
aa(lp1628
S'2016-01-19'
p1629
aF38.07
aF38.209999
aF37.41
aF37.75
aI1498100
aF37.447212
aa(lp1630
S'2016-01-20'
p1631
aF37.279999
aF38.040001
aF36.5
aF37.68
aI1407100
aF37.377774
aa(lp1632
S'2016-01-21'
p1633
aF37.709999
aF38.07
aF37.43
aF37.580002
aI364900
aF37.278577
aa(lp1634
S'2016-01-22'
p1635
aF38.16
aF38.52
aF38.080002
aF38.470001
aI456000
aF38.161438
aa(lp1636
S'2016-01-25'
p1637
aF38.360001
aF38.369999
aF37.779999
aF37.830002
aI156800
aF37.526572
aa(lp1638
S'2016-01-26'
p1639
aF37.93
aF38.290001
aF37.740002
aF38.220001
aI474800
aF37.913443
aa(lp1640
S'2016-01-27'
p1641
aF38.110001
aF38.310001
aF37.41
aF37.619999
aI360600
aF37.318254
aa(lp1642
S'2016-01-28'
p1643
aF37.720001
aF37.75
aF37.290001
aF37.560001
aI225600
aF37.258737
aa(lp1644
S'2016-01-29'
p1645
aF37.57
aF38.439999
aF37.57
aF38.369999
aI247900
aF38.062238
aa(lp1646
S'2016-02-01'
p1647
aF38.189999
aF38.709999
aF38.080002
aF38.57
aI194500
aF38.260634
aa(lp1648
S'2016-02-02'
p1649
aF38.27
aF38.290001
aF37.689999
aF37.84
aI250600
aF37.53649
aa(lp1650
S'2016-02-03'
p1651
aF38.080002
aF38.119999
aF37.25
aF37.93
aI453100
aF37.625768
aa(lp1652
S'2016-02-04'
p1653
aF37.830002
aF38.09
aF37.580002
aF37.830002
aI275400
aF37.526572
aa(lp1654
S'2016-02-05'
p1655
aF37.709999
aF37.709999
aF36.669998
aF36.779999
aI214400
aF36.484991
aa(lp1656
S'2016-02-08'
p1657
aF36.5
aF36.5
aF35.459999
aF35.93
aI746900
aF35.64181
aa(lp1658
S'2016-02-09'
p1659
aF35.490002
aF36.41
aF35.419998
aF36.07
aI1098400
aF35.780687
aa(lp1660
S'2016-02-10'
p1661
aF36.380001
aF36.990002
aF36.380001
aF36.389999
aI650000
aF36.09812
aa(lp1662
S'2016-02-11'
p1663
aF35.849998
aF36.360001
aF35.740002
aF36.119999
aI2012200
aF35.830285
aa(lp1664
S'2016-02-12'
p1665
aF36.5
aF36.849998
aF36.310001
aF36.830002
aI988900
aF36.534593
aa(lp1666
S'2016-02-16'
p1667
aF37.18
aF37.639999
aF37.16
aF37.599998
aI701800
aF37.298413
aa(lp1668
S'2016-02-17'
p1669
aF37.880001
aF38.310001
aF37.880001
aF38.200001
aI770700
aF37.893603
aa(lp1670
S'2016-02-18'
p1671
aF38.25
aF38.25
aF37.91
aF37.959999
aI362100
aF37.655527
aa(lp1672
S'2016-02-19'
p1673
aF37.790001
aF38.18
aF37.630001
aF38.16
aI1715200
aF37.853923
aa(lp1674
S'2016-02-22'
p1675
aF38.48
aF38.689999
aF38.43
aF38.57
aI239300
aF38.260634
aa(lp1676
S'2016-02-23'
p1677
aF38.490002
aF38.580002
aF38.220001
aF38.299999
aI302400
aF37.9928
aa(lp1678
S'2016-02-24'
p1679
aF38.0
aF38.669998
aF37.830002
aF38.630001
aI272400
aF38.320155
aa(lp1680
S'2016-02-25'
p1681
aF38.82
aF39.16
aF38.669998
aF39.119999
aI201700
aF38.806222
aa(lp1682
S'2016-02-26'
p1683
aF39.220001
aF39.330002
aF39.060001
aF39.09
aI289800
aF38.776464
aa(lp1684
S'2016-02-29'
p1685
aF39.07
aF39.23
aF38.740002
aF38.740002
aI171700
aF38.429273
aa(lp1686
S'2016-03-01'
p1687
aF39.009998
aF39.700001
aF38.950001
aF39.700001
aI203800
aF39.381572
aa(lp1688
S'2016-03-02'
p1689
aF39.610001
aF39.709999
aF39.459999
aF39.709999
aI155600
aF39.39149
aa(lp1690
S'2016-03-03'
p1691
aF39.66
aF39.810001
aF39.459999
aF39.790001
aI120200
aF39.47085
aa(lp1692
S'2016-03-04'
p1693
aF39.82
aF40.029999
aF39.639999
aF39.860001
aI341600
aF39.540288
aa(lp1694
S'2016-03-07'
p1695
aF39.689999
aF39.919998
aF39.5
aF39.720001
aI395100
aF39.401412
aa(lp1696
S'2016-03-08'
p1697
aF39.509998
aF39.720001
aF39.349998
aF39.400002
aI208400
aF39.083979
aa(lp1698
S'2016-03-09'
p1699
aF39.540001
aF39.540001
aF39.279999
aF39.400002
aI136500
aF39.083979
aa(lp1700
S'2016-03-10'
p1701
aF39.529999
aF39.77
aF39.060001
aF39.419998
aI226900
aF39.103815
aa(lp1702
S'2016-03-11'
p1703
aF39.779999
aF40.049999
aF39.709999
aF40.040001
aI115600
aF39.718845
aa(lp1704
S'2016-03-14'
p1705
aF39.91
aF40.09
aF39.869999
aF40.0
aI222500
aF39.679165
aa(lp1706
S'2016-03-15'
p1707
aF39.810001
aF40.0
aF39.75
aF39.869999
aI102900
aF39.550207
aa(lp1708
S'2016-03-16'
p1709
aF39.82
aF40.16
aF39.759998
aF40.099998
aI200400
aF39.778361
aa(lp1710
S'2016-03-17'
p1711
aF40.060001
aF40.419998
aF39.91
aF40.299999
aI339200
aF39.976758
aa(lp1712
S'2016-03-18'
p1713
aF40.459999
aF40.560001
aF40.259998
aF40.43
aI109100
aF40.105716
aa(lp1714
S'2016-03-21'
p1715
aF40.400002
aF40.470001
aF40.310001
aF40.380001
aI135300
aF40.056118
aa(lp1716
S'2016-03-22'
p1717
aF40.23
aF40.619999
aF40.23
aF40.490002
aI93400
aF40.165236
aa(lp1718
S'2016-03-23'
p1719
aF40.380001
aF40.380001
aF40.139999
aF40.139999
aI121700
aF39.818041
aa(lp1720
S'2016-03-24'
p1721
aF39.98
aF40.049999
aF39.810001
aF40.049999
aI195200
aF39.728763
aa(lp1722
S'2016-03-28'
p1723
aF40.130001
aF40.200001
aF39.959999
aF40.110001
aI85700
aF39.788283
aa(lp1724
S'2016-03-29'
p1725
aF40.080002
aF40.689999
aF40.0
aF40.68
aI132200
aF40.353711
aa(lp1726
S'2016-03-30'
p1727
aF40.860001
aF41.0
aF40.759998
aF40.830002
aI234800
aF40.502509
aa(lp1728
S'2016-03-31'
p1729
aF40.82
aF40.950001
aF40.720001
aF40.779999
aI381400
aF40.452907
aa(lp1730
S'2016-04-01'
p1731
aF40.610001
aF41.209999
aF40.529999
aF41.189999
aI133500
aF40.859619
aa(lp1732
S'2016-04-04'
p1733
aF41.130001
aF41.130001
aF40.700001
aF40.740002
aI140600
aF40.413231
aa(lp1734
S'2016-04-05'
p1735
aF40.470001
aF40.650002
aF40.389999
aF40.439999
aI235700
aF40.115634
aa(lp1736
S'2016-04-06'
p1737
aF40.439999
aF40.799999
aF40.419998
aF40.790001
aI109200
aF40.462829
aa(lp1738
S'2016-04-07'
p1739
aF40.650002
aF40.650002
aF40.23
aF40.389999
aI145300
aF40.066036
aa(lp1740
S'2016-04-08'
p1741
aF40.610001
aF40.68
aF40.400002
aF40.5
aI107900
aF40.175154
aa(lp1742
S'2016-04-11'
p1743
aF40.59
aF40.669998
aF40.209999
aF40.220001
aI151100
aF39.897402
aa(lp1744
S'2016-04-12'
p1745
aF40.23
aF40.540001
aF40.099998
aF40.48
aI130800
aF40.155314
aa(lp1746
S'2016-04-13'
p1747
aF40.689999
aF40.869999
aF40.57
aF40.869999
aI248000
aF40.542186
aa(lp1748
S'2016-04-14'
p1749
aF40.869999
aF40.919998
aF40.73
aF40.77
aI268700
aF40.442989
aa(lp1750
S'2016-04-15'
p1751
aF40.73
aF40.959999
aF40.73
aF40.939999
aI91100
aF40.611624
aa(lp1752
S'2016-04-18'
p1753
aF40.84
aF41.23
aF40.82
aF41.200001
aI121300
aF40.869541
aa(lp1754
S'2016-04-19'
p1755
aF41.279999
aF41.299999
aF41.060001
aF41.16
aI160000
aF40.829861
aa(lp1756
S'2016-04-20'
p1757
aF41.209999
aF41.310001
aF41.0
aF41.150002
aI314700
aF40.819942
aa(lp1758
S'2016-04-21'
p1759
aF41.209999
aF41.209999
aF40.68
aF40.720001
aI219700
aF40.393391
aa(lp1760
S'2016-04-22'
p1761
aF40.700001
aF40.84
aF40.560001
aF40.82
aI435900
aF40.492587
aa(lp1762
S'2016-04-25'
p1763
aF40.68
aF40.790001
aF40.619999
aF40.779999
aI238100
aF40.452907
aa(lp1764
S'2016-04-26'
p1765
aF40.830002
aF41.049999
aF40.799999
aF40.959999
aI156800
aF40.631464
aa(lp1766
S'2016-04-27'
p1767
aF40.939999
aF41.099998
aF40.790001
aF41.02
aI360800
aF40.690984
aa(lp1768
S'2016-04-28'
p1769
aF40.790001
aF41.009998
aF40.509998
aF40.59
aI331100
aF40.264433
aa(lp1770
S'2016-04-29'
p1771
aF40.549999
aF40.549999
aF40.259998
aF40.490002
aI194800
aF40.165236
aa(lp1772
S'2016-05-02'
p1773
aF40.529999
aF40.889999
aF40.529999
aF40.849998
aI316400
aF40.522346
aa(lp1774
S'2016-05-03'
p1775
aF40.650002
aF40.740002
aF40.400002
aF40.59
aI839100
aF40.264433
aa(lp1776
S'2016-05-04'
p1777
aF40.32
aF40.549999
aF40.279999
aF40.48
aI366600
aF40.155314
aa(lp1778
S'2016-05-05'
p1779
aF40.57
aF40.709999
aF40.5
aF40.540001
aI255700
aF40.214835
aa(lp1780
S'2016-05-06'
p1781
aF40.41
aF40.790001
aF40.349998
aF40.759998
aI220000
aF40.433067
aa(lp1782
S'2016-05-09'
p1783
aF40.73
aF41.150002
aF40.73
aF41.040001
aI152600
aF40.710824
aa(lp1784
S'2016-05-10'
p1785
aF41.16
aF41.48
aF41.16
aF41.459999
aI80300
aF41.127453
aa(lp1786
S'2016-05-11'
p1787
aF41.439999
aF41.439999
aF41.09
aF41.09
aI107000
aF40.760422
aa(lp1788
S'2016-05-12'
p1789
aF41.209999
aF41.360001
aF41.0
aF41.27
aI320900
aF40.938979
aa(lp1790
S'2016-05-13'
p1791
aF41.18
aF41.290001
aF40.869999
aF40.970001
aI160700
aF40.641386
aa(lp1792
S'2016-05-16'
p1793
aF40.950001
aF41.439999
aF40.950001
aF41.349998
aI130100
aF41.018335
aa(lp1794
S'2016-05-17'
p1795
aF41.23
aF41.32
aF40.66
aF40.799999
aI167000
aF40.472747
aa(lp1796
S'2016-05-18'
p1797
aF40.709999
aF41.02
aF40.57
aF40.759998
aI168200
aF40.433067
aa(lp1798
S'2016-05-19'
p1799
aF40.509998
aF40.740002
aF40.41
aF40.669998
aI184400
aF40.343789
aa(lp1800
S'2016-05-20'
p1801
aF40.73
aF40.970001
aF40.73
aF40.880001
aI116100
aF40.552108
aa(lp1802
S'2016-05-23'
p1803
aF40.860001
aF40.900002
aF40.68
aF40.700001
aI127900
aF40.373551
aa(lp1804
S'2016-05-24'
p1805
aF40.830002
aF41.369999
aF40.830002
aF41.299999
aI141100
aF40.968737
aa(lp1806
S'2016-05-25'
p1807
aF41.369999
aF41.419998
aF41.279999
aF41.32
aI146100
aF40.988577
aa(lp1808
S'2016-05-26'
p1809
aF41.380001
aF41.509998
aF41.380001
aF41.450001
aI87800
aF41.117535
aa(lp1810
S'2016-05-27'
p1811
aF41.470001
aF41.68
aF41.470001
aF41.669998
aI58200
aF41.335768
aa(lp1812
S'2016-05-31'
p1813
aF41.75
aF41.77
aF41.450001
aF41.599998
aI281200
aF41.26633
aa(lp1814
S'2016-06-01'
p1815
aF41.48
aF41.790001
aF41.48
aF41.790001
aI342700
aF41.454808
aa(lp1816
S'2016-06-02'
p1817
aF41.700001
aF41.950001
aF41.630001
aF41.939999
aI149000
aF41.603603
aa(lp1818
S'2016-06-03'
p1819
aF41.919998
aF41.93
aF41.599998
aF41.860001
aI154900
aF41.524247
aa(lp1820
S'2016-06-06'
p1821
aF41.900002
aF42.009998
aF41.810001
aF41.919998
aI132600
aF41.583763
aa(lp1822
S'2016-06-07'
p1823
aF41.950001
aF42.130001
aF41.939999
aF42.009998
aI95900
aF41.673041
aa(lp1824
S'2016-06-08'
p1825
aF42.0
aF42.240002
aF41.950001
aF42.189999
aI91700
aF41.851598
aa(lp1826
S'2016-06-09'
p1827
aF42.099998
aF42.25
aF42.07
aF42.220001
aI109700
aF41.88136
aa(lp1828
S'2016-06-10'
p1829
aF42.0
aF42.0
aF41.720001
aF41.84
aI73900
aF41.504407
aa(lp1830
S'2016-06-13'
p1831
aF41.709999
aF41.84
aF41.419998
aF41.439999
aI70300
aF41.107613
aa(lp1832
S'2016-06-14'
p1833
aF41.310001
aF41.439999
aF41.189999
aF41.400002
aI68400
aF41.067937
aa(lp1834
S'2016-06-15'
p1835
aF41.529999
aF41.57
aF41.310001
aF41.34
aI182800
aF41.008417
aa(lp1836
S'2016-06-16'
p1837
aF41.220001
aF41.490002
aF41.040001
aF41.470001
aI131900
aF41.137375
aa(lp1838
S'2016-06-17'
p1839
aF41.349998
aF41.349998
aF40.98
aF41.130001
aI430100
aF40.900704
aa(lp1840
S'2016-06-20'
p1841
aF41.41
aF41.709999
aF41.41
aF41.470001
aI88900
aF41.238808
aa(lp1842
S'2016-06-21'
p1843
aF41.529999
aF41.599998
aF41.439999
aF41.48
aI71100
aF41.248751
aa(lp1844
S'2016-06-22'
p1845
aF41.52
aF41.669998
aF41.450001
aF41.459999
aI128300
aF41.228862
aa(lp1846
S'2016-06-23'
p1847
aF41.740002
aF41.939999
aF41.709999
aF41.93
aI146600
aF41.696243
aa(lp1848
S'2016-06-24'
p1849
aF40.689999
aF41.290001
aF40.619999
aF40.75
aI154600
aF40.522821
aa(lp1850
S'2016-06-27'
p1851
aF40.48
aF40.52
aF39.84
aF40.130001
aI278500
aF39.906279
aa(lp1852
S'2016-06-28'
p1853
aF40.369999
aF40.82
aF40.369999
aF40.799999
aI496500
aF40.572542
aa(lp1854
S'2016-06-29'
p1855
aF41.07
aF41.5
aF41.07
aF41.470001
aI289600
aF41.238808
aa(lp1856
S'2016-06-30'
p1857
aF41.59
aF42.099998
aF41.52
aF42.099998
aI378000
aF41.865293
aa(lp1858
S'2016-07-01'
p1859
aF42.110001
aF42.290001
aF41.990002
aF42.080002
aI363800
aF41.845408
aa(lp1860
S'2016-07-05'
p1861
aF42.02
aF42.060001
aF41.849998
aF41.990002
aI192300
aF41.75591
aa(lp1862
S'2016-07-06'
p1863
aF41.900002
aF42.189999
aF41.84
aF42.18
aI94400
aF41.944849
aa(lp1864
S'2016-07-07'
p1865
aF42.220001
aF42.279999
aF42.029999
aF42.150002
aI102800
aF41.915018
aa(lp1866
S'2016-07-08'
p1867
aF42.400002
aF42.73
aF42.380001
aF42.700001
aI249700
aF42.461951
aa(lp1868
S'2016-07-11'
p1869
aF42.830002
aF42.950001
aF42.779999
aF42.84
aI325300
aF42.60117
aa(lp1870
S'2016-07-12'
p1871
aF42.959999
aF42.959999
aF42.790001
aF42.849998
aI212800
aF42.611112
aa(lp1872
S'2016-07-13'
p1873
aF42.810001
aF42.970001
aF42.790001
aF42.830002
aI67600
aF42.591227
aa(lp1874
S'2016-07-14'
p1875
aF43.009998
aF43.049999
aF42.830002
aF42.889999
aI90100
aF42.65089
aa(lp1876
S'2016-07-15'
p1877
aF42.970001
aF42.970001
aF42.720001
aF42.75
aI113500
aF42.511671
aa(lp1878
S'2016-07-18'
p1879
aF42.779999
aF42.799999
aF42.619999
aF42.720001
aI98800
aF42.48184
aa(lp1880
S'2016-07-19'
p1881
aF42.639999
aF42.77
aF42.639999
aF42.77
aI72700
aF42.53156
aa(lp1882
S'2016-07-20'
p1883
aF42.869999
aF43.02
aF42.849998
aF42.970001
aI91700
aF42.730446
aa(lp1884
S'2016-07-21'
p1885
aF42.919998
aF42.919998
aF42.57
aF42.720001
aI173000
aF42.48184
aa(lp1886
S'2016-07-22'
p1887
aF42.709999
aF43.07
aF42.709999
aF43.02
aI77800
aF42.780166
aa(lp1888
S'2016-07-25'
p1889
aF42.98
aF42.98
aF42.75
aF42.880001
aI86600
aF42.640948
aa(lp1890
S'2016-07-26'
p1891
aF42.860001
aF43.02
aF42.75
aF42.889999
aI73500
aF42.65089
aa(lp1892
S'2016-07-27'
p1893
aF42.950001
aF42.950001
aF42.52
aF42.66
aI194300
aF42.422173
aa(lp1894
S'2016-07-28'
p1895
aF42.68
aF43.009998
aF42.669998
aF42.939999
aI96900
aF42.700611
aa(lp1896
S'2016-07-29'
p1897
aF42.919998
aF43.189999
aF42.880001
aF43.060001
aI99000
aF42.819944
aa(lp1898
S'2016-08-01'
p1899
aF43.040001
aF43.23
aF43.02
aF43.119999
aI405000
aF42.879607
aa(lp1900
S'2016-08-02'
p1901
aF43.029999
aF43.060001
aF42.700001
aF42.82
aI131500
aF42.581281
aa(lp1902
S'2016-08-03'
p1903
aF42.77
aF42.77
aF42.66
aF42.759998
aI78300
aF42.521614
aa(lp1904
S'2016-08-04'
p1905
aF42.84
aF42.93
aF42.75
aF42.82
aI55500
aF42.581281
aa(lp1906
S'2016-08-05'
p1907
aF43.049999
aF43.139999
aF43.049999
aF43.099998
aI67900
aF42.859718
aa(lp1908
S'2016-08-08'
p1909
aF43.150002
aF43.150002
aF42.900002
aF42.950001
aI103600
aF42.710557
aa(lp1910
S'2016-08-09'
p1911
aF42.990002
aF43.130001
aF42.98
aF43.049999
aI140200
aF42.809998
aa(lp1912
S'2016-08-10'
p1913
aF43.09
aF43.18
aF43.0
aF43.130001
aI87000
aF42.889554
aa(lp1914
S'2016-08-11'
p1915
aF43.279999
aF43.369999
aF43.139999
aF43.209999
aI101500
aF42.969106
aa(lp1916
S'2016-08-12'
p1917
aF43.169998
aF43.220001
aF43.07
aF43.139999
aI129000
aF42.899496
aa(lp1918
S'2016-08-15'
p1919
aF43.220001
aF43.279999
aF43.200001
aF43.209999
aI207900
aF42.969106
aa(lp1920
S'2016-08-16'
p1921
aF43.07
aF43.07
aF42.799999
aF42.82
aI219100
aF42.581281
aa(lp1922
S'2016-08-17'
p1923
aF42.790001
aF42.860001
aF42.580002
aF42.830002
aI185600
aF42.591227
aa(lp1924
S'2016-08-18'
p1925
aF42.84
aF43.040001
aF42.84
aF43.029999
aI178900
aF42.790109
aa(lp1926
S'2016-08-19'
p1927
aF43.029999
aF43.040001
aF42.830002
aF43.02
aI1044900
aF42.780166
aa(lp1928
S'2016-08-22'
p1929
aF43.0
aF43.099998
aF42.939999
aF43.080002
aI122500
aF42.839833
aa(lp1930
S'2016-08-23'
p1931
aF43.169998
aF43.23
aF43.040001
aF43.040001
aI107000
aF42.800055
aa(lp1932
S'2016-08-24'
p1933
aF43.060001
aF43.060001
aF42.790001
aF42.849998
aI278200
aF42.611112
aa(lp1934
S'2016-08-25'
p1935
aF42.799999
aF43.009998
aF42.77
aF42.849998
aI88200
aF42.611112
aa(lp1936
S'2016-08-26'
p1937
aF42.889999
aF43.099998
aF42.529999
aF42.700001
aI69500
aF42.461951
aa(lp1938
S'2016-08-29'
p1939
aF42.75
aF43.029999
aF42.75
aF42.959999
aI102100
aF42.7205
aa(lp1940
S'2016-08-30'
p1941
aF42.950001
aF43.029999
aF42.75
aF42.849998
aI84800
aF42.611112
aa(lp1942
S'2016-08-31'
p1943
aF42.810001
aF42.830002
aF42.619999
aF42.779999
aI98400
aF42.541503
aa(lp1944
S'2016-09-01'
p1945
aF42.799999
aF42.919998
aF42.669998
aF42.869999
aI80800
aF42.631001
aa(lp1946
S'2016-09-02'
p1947
aF43.0
aF43.220001
aF43.0
aF43.200001
aI72200
aF42.959163
aa(lp1948
S'2016-09-06'
p1949
aF43.25
aF43.259998
aF43.060001
aF43.23
aI313800
aF42.988995
aa(lp1950
S'2016-09-07'
p1951
aF43.200001
aF43.25
aF43.080002
aF43.25
aI205100
aF43.008884
aa(lp1952
S'2016-09-08'
p1953
aF43.110001
aF43.110001
aF42.93
aF42.950001
aI224800
aF42.710557
aa(lp1954
S'2016-09-09'
p1955
aF42.68
aF42.759998
aF41.869999
aF41.869999
aI168100
aF41.636576
aa(lp1956
S'2016-09-12'
p1957
aF41.740002
aF42.43
aF41.709999
aF42.369999
aI121100
aF42.133789
aa(lp1958
S'2016-09-13'
p1959
aF42.16
aF42.169998
aF41.639999
aF41.77
aI144000
aF41.537135
aa(lp1960
S'2016-09-14'
p1961
aF41.799999
aF41.98
aF41.650002
aF41.759998
aI98500
aF41.527189
aa(lp1962
S'2016-09-15'
p1963
aF41.700001
aF42.240002
aF41.669998
aF42.189999
aI238600
aF41.954792
aa(lp1964
S'2016-09-16'
p1965
aF42.060001
aF42.099998
aF41.880001
aF41.98
aI225900
aF41.788553
aa(lp1966
S'2016-09-19'
p1967
aF42.099998
aF42.27
aF41.990002
aF42.130001
aI214400
aF41.937871
aa(lp1968
S'2016-09-20'
p1969
aF42.290001
aF42.32
aF42.099998
aF42.119999
aI92000
aF41.927914
aa(lp1970
S'2016-09-21'
p1971
aF42.189999
aF42.459999
aF41.93
aF42.439999
aI108900
aF42.246455
aa(lp1972
S'2016-09-22'
p1973
aF42.650002
aF42.869999
aF42.650002
aF42.84
aI343200
aF42.644632
aa(lp1974
S'2016-09-23'
p1975
aF42.740002
aF42.75
aF42.57
aF42.599998
aI78200
aF42.405725
aa(lp1976
S'2016-09-26'
p1977
aF42.43
aF42.599998
aF42.349998
aF42.360001
aI262000
aF42.166822
aa(lp1978
S'2016-09-27'
p1979
aF42.360001
aF42.599998
aF42.34
aF42.540001
aI111500
aF42.346001
aa(lp1980
S'2016-09-28'
p1981
aF42.580002
aF42.700001
aF42.349998
aF42.68
aI71300
aF42.485362
aa(lp1982
S'2016-09-29'
p1983
aF42.599998
aF42.689999
aF42.139999
aF42.27
aI81700
aF42.077232
aa(lp1984
S'2016-09-30'
p1985
aF42.419998
aF42.560001
aF42.27
aF42.41
aI116300
aF42.216593
aa(lp1986
S'2016-10-03'
p1987
aF42.34
aF42.360001
aF42.080002
aF42.150002
aI369000
aF41.95778
aa(lp1988
S'2016-10-04'
p1989
aF42.189999
aF42.23
aF41.740002
aF41.84
aI277300
aF41.649193
aa(lp1990
S'2016-10-05'
p1991
aF41.869999
aF41.970001
aF41.799999
aF41.82
aI181800
aF41.629283
aa(lp1992
S'2016-10-06'
p1993
aF41.77
aF41.919998
aF41.700001
aF41.919998
aI65100
aF41.728826
aa(lp1994
S'2016-10-07'
p1995
aF41.939999
aF41.939999
aF41.52
aF41.689999
aI66800
aF41.499875
aa(lp1996
S'2016-10-10'
p1997
aF41.869999
aF42.099998
aF41.869999
aF41.950001
aI105400
aF41.758692
aa(lp1998
S'2016-10-11'
p1999
aF41.84
aF41.950001
aF41.23
aF41.369999
aI150400
aF41.181335
aa(lp2000
S'2016-10-12'
p2001
aF41.380001
aF41.669998
aF41.34
aF41.59
aI84400
aF41.400333
aa(lp2002
S'2016-10-13'
p2003
aF41.380001
aF41.610001
aF41.189999
aF41.509998
aI133000
aF41.320696
aa(lp2004
S'2016-10-14'
p2005
aF41.689999
aF41.82
aF41.5
aF41.52
aI72700
aF41.330652
aa(lp2006
S'2016-10-17'
p2007
aF41.5
aF41.599998
aF41.470001
aF41.5
aI77000
aF41.310743
aa(lp2008
S'2016-10-18'
p2009
aF41.810001
aF41.91
aF41.709999
aF41.73
aI168300
aF41.539694
aa(lp2010
S'2016-10-19'
p2011
aF41.75
aF41.830002
aF41.599998
aF41.779999
aI123200
aF41.589465
aa(lp2012
S'2016-10-20'
p2013
aF41.740002
aF41.740002
aF41.439999
aF41.580002
aI97700
aF41.39038
aa(lp2014
S'2016-10-21'
p2015
aF41.389999
aF41.560001
aF41.299999
aF41.540001
aI125700
aF41.350561
aa(lp2016
S'2016-10-24'
p2017
aF41.689999
aF41.889999
aF41.689999
aF41.77
aI240600
aF41.579512
aa(lp2018
S'2016-10-25'
p2019
aF41.669998
aF41.669998
aF41.459999
aF41.459999
aI180300
aF41.270924
aa(lp2020
S'2016-10-26'
p2021
aF41.349998
aF41.400002
aF41.209999
aF41.299999
aI132200
aF41.111654
aa(lp2022
S'2016-10-27'
p2023
aF41.299999
aF41.299999
aF40.84
aF40.900002
aI369000
aF40.713481
aa(lp2024
S'2016-10-28'
p2025
aF40.830002
aF41.189999
aF40.830002
aF40.950001
aI138600
aF40.763252
aa(lp2026
S'2016-10-31'
p2027
aF41.049999
aF41.220001
aF41.0
aF41.200001
aI660100
aF41.012112
aa(lp2028
S'2016-11-01'
p2029
aF41.209999
aF41.220001
aF40.66
aF40.82
aI1024200
aF40.633844
aa(lp2030
S'2016-11-02'
p2031
aF40.669998
aF40.77
aF40.470001
aF40.509998
aI193800
aF40.325256
aa(lp2032
S'2016-11-03'
p2033
aF40.529999
aF40.619999
aF40.310001
aF40.34
aI288100
aF40.156033
aa(lp2034
S'2016-11-04'
p2035
aF40.360001
aF40.610001
aF40.290001
aF40.310001
aI201800
aF40.126171
aa(lp2036
S'2016-11-07'
p2037
aF40.75
aF41.060001
aF40.740002
aF41.060001
aI270900
aF40.872751
aa(lp2038
S'2016-11-08'
p2039
aF41.0
aF41.459999
aF41.0
aF41.330002
aI156000
aF41.14152
aa(lp2040
S'2016-11-09'
p2041
aF40.869999
aF41.509998
aF40.75
aF41.389999
aI313100
aF41.201244
aa(lp2042
S'2016-11-10'
p2043
aF41.59
aF41.630001
aF40.919998
aF41.02
aI622400
aF40.832932
aa(lp2044
S'2016-11-11'
p2045
aF40.98
aF41.279999
aF40.959999
aF41.220001
aI249700
aF41.032021
aa(lp2046
S'2016-11-14'
p2047
aF41.34
aF41.34
aF41.02
aF41.200001
aI149400
aF41.012112
aa(lp2048
S'2016-11-15'
p2049
aF41.299999
aF41.59
aF41.299999
aF41.549999
aI380800
aF41.360514
aa(lp2050
S'2016-11-16'
p2051
aF41.450001
aF41.75
aF41.450001
aF41.73
aI688600
aF41.539694
aa(lp2052
S'2016-11-17'
p2053
aF41.810001
aF42.029999
aF41.810001
aF41.939999
aI113700
aF41.748735
aa(lp2054
S'2016-11-18'
p2055
aF41.990002
aF42.02
aF41.810001
aF41.84
aI172900
aF41.649193
aa(lp2056
S'2016-11-21'
p2057
aF41.970001
aF42.099998
aF41.939999
aF42.080002
aI151900
aF41.8881
aa(lp2058
S'2016-11-22'
p2059
aF42.189999
aF42.330002
aF42.09
aF42.299999
aI152600
aF42.107094
aa(lp2060
S'2016-11-23'
p2061
aF42.189999
aF42.389999
aF42.189999
aF42.389999
aI136600
aF42.196684
aa(lp2062
S'2016-11-25'
p2063
aF42.419998
aF42.580002
aF42.419998
aF42.580002
aI60900
aF42.38582
aa(lp2064
S'2016-11-28'
p2065
aF42.509998
aF42.560001
aF42.360001
aF42.389999
aI119300
aF42.196684
aa(lp2066
S'2016-11-29'
p2067
aF42.349998
aF42.610001
aF42.349998
aF42.5
aI286300
aF42.306183
aa(lp2068
S'2016-11-30'
p2069
aF42.540001
aF42.57
aF41.950001
aF41.950001
aI750800
aF41.758692
aa(lp2070
S'2016-12-01'
p2071
aF42.0
aF42.0
aF41.43
aF41.52
aI129700
aF41.330652
aa(lp2072
S'2016-12-02'
p2073
aF41.549999
aF41.740002
aF41.529999
aF41.639999
aI200300
aF41.450104
aa(lp2074
S'2016-12-05'
p2075
aF41.799999
aF41.990002
aF41.779999
aF41.939999
aI247700
aF41.748735
aa(lp2076
S'2016-12-06'
p2077
aF42.009998
aF42.169998
aF41.939999
aF42.16
aI273400
aF41.967733
aa(lp2078
S'2016-12-07'
p2079
aF42.130001
aF42.630001
aF42.09
aF42.57
aI162400
aF42.375863
aa(lp2080
S'2016-12-08'
p2081
aF42.669998
aF42.77
aF42.490002
aF42.700001
aI184200
aF42.505271
aa(lp2082
S'2016-12-09'
p2083
aF42.720001
aF42.799999
aF42.630001
aF42.709999
aI208000
aF42.515224
aa(lp2084
S'2016-12-12'
p2085
aF42.66
aF42.709999
aF42.529999
aF42.639999
aI93700
aF42.445543
aa(lp2086
S'2016-12-13'
p2087
aF42.700001
aF42.98
aF42.689999
aF42.82
aI244100
aF42.624723
aa(lp2088
S'2016-12-14'
p2089
aF42.849998
aF42.939999
aF42.419998
aF42.459999
aI102400
aF42.266364
aa(lp2090
S'2016-12-15'
p2091
aF42.48
aF42.740002
aF42.389999
aF42.540001
aI142200
aF42.346001
aa(lp2092
S'2016-12-16'
p2093
aF42.259998
aF42.560001
aF42.259998
aF42.290001
aI107100
aF42.290001
aa(lp2094
S'2016-12-19'
p2095
aF42.310001
aF42.540001
aF42.310001
aF42.439999
aI138300
aF42.439999
aa(lp2096
S'2016-12-20'
p2097
aF42.59
aF42.59
aF42.43
aF42.52
aI165100
aF42.52
aa(lp2098
S'2016-12-21'
p2099
aF42.5
aF42.59
aF42.43
aF42.439999
aI99400
aF42.439999
aa(lp2100
S'2016-12-22'
p2101
aF42.41
aF42.41
aF42.16
aF42.23
aI131800
aF42.23
aa(lp2102
S'2016-12-23'
p2103
aF42.169998
aF42.360001
aF42.169998
aF42.330002
aI61200
aF42.330002
aa(lp2104
S'2016-12-27'
p2105
aF42.389999
aF42.52
aF42.389999
aF42.48
aI59800
aF42.48
aa(lp2106
S'2016-12-28'
p2107
aF42.509998
aF42.509998
aF42.07
aF42.07
aI80300
aF42.07
aa(lp2108
S'2016-12-29'
p2109
aF42.09
aF42.240002
aF42.09
aF42.189999
aI90200
aF42.189999
aa(lp2110
S'2016-12-30'
p2111
aF42.290001
aF42.290001
aF41.880001
aF42.0
aI246500
aF42.0
aa(lp2112
S'2017-01-03'
p2113
aF42.299999
aF42.34
aF41.869999
aF42.110001
aI234100
aF42.110001
aa(lp2114
S'2017-01-04'
p2115
aF42.150002
aF42.549999
aF42.150002
aF42.5
aI130900
aF42.5
aa(lp2116
S'2017-01-05'
p2117
aF42.439999
aF42.549999
aF42.220001
aF42.360001
aI262400
aF42.360001
aa(lp2118
S'2017-01-06'
p2119
aF42.400002
aF42.669998
aF42.389999
aF42.5
aI97900
aF42.5
aa(lp2120
S'2017-01-09'
p2121
aF42.48
aF42.509998
aF42.34
aF42.360001
aI129300
aF42.360001
aa(lp2122
S'2017-01-10'
p2123
aF42.380001
aF42.68
aF42.360001
aF42.52
aI160400
aF42.52
aa(lp2124
S'2017-01-11'
p2125
aF42.490002
aF42.650002
aF42.41
aF42.650002
aI102400
aF42.650002
aa(lp2126
S'2017-01-12'
p2127
aF42.509998
aF42.540001
aF42.16
aF42.52
aI99700
aF42.52
aa(lp2128
S'2017-01-13'
p2129
aF42.549999
aF42.759998
aF42.549999
aF42.669998
aI131200
aF42.669998
aa(lp2130
S'2017-01-17'
p2131
aF42.549999
aF42.630001
aF42.349998
aF42.419998
aI136200
aF42.419998
aa(lp2132
S'2017-01-18'
p2133
aF42.450001
aF42.619999
aF42.389999
aF42.610001
aI160200
aF42.610001
aa(lp2134
S'2017-01-19'
p2135
aF42.619999
aF42.66
aF42.259998
aF42.400002
aI453000
aF42.400002
aa(lp2136
S'2017-01-20'
p2137
aF42.509998
aF42.610001
aF42.349998
aF42.5
aI162700
aF42.5
aa(lp2138
S'2017-01-23'
p2139
aF42.419998
aF42.52
aF42.200001
aF42.369999
aI89800
aF42.369999
aa(lp2140
S'2017-01-24'
p2141
aF42.43
aF42.810001
aF42.43
aF42.779999
aI350600
aF42.779999
aa(lp2142
S'2017-01-25'
p2143
aF42.950001
aF43.16
aF42.950001
aF43.119999
aI397000
aF43.119999
aa(lp2144
S'2017-01-26'
p2145
aF43.150002
aF43.240002
aF43.07
aF43.139999
aI706200
aF43.139999
aa(lp2146
S'2017-01-27'
p2147
aF43.18
aF43.18
aF42.959999
aF43.040001
aI126500
aF43.040001
aa(lp2148
S'2017-01-30'
p2149
aF42.860001
aF42.869999
aF42.48
aF42.82
aI74400
aF42.82
aa(lp2150
S'2017-01-31'
p2151
aF42.740002
aF42.900002
aF42.619999
aF42.889999
aI276400
aF42.889999
aa(lp2152
S'2017-02-01'
p2153
aF43.09
aF43.150002
aF42.790001
aF42.959999
aI301900
aF42.959999
aa(lp2154
S'2017-02-02'
p2155
aF42.869999
aF43.16
aF42.84
aF43.060001
aI115300
aF43.060001
aa(lp2156
S'2017-02-03'
p2157
aF43.240002
aF43.560001
aF43.240002
aF43.540001
aI1227100
aF43.540001
aa(lp2158
S'2017-02-06'
p2159
aF43.470001
aF43.599998
aF43.470001
aF43.580002
aI102400
aF43.580002
aa(lp2160
S'2017-02-07'
p2161
aF43.66
aF43.799999
aF43.57
aF43.630001
aI69400
aF43.630001
aa(lp2162
S'2017-02-08'
p2163
aF43.599998
aF43.849998
aF43.48
aF43.849998
aI213600
aF43.849998
aa(lp2164
S'2017-02-09'
p2165
aF43.860001
aF44.279999
aF43.860001
aF44.18
aI142800
aF44.18
aa(lp2166
S'2017-02-10'
p2167
aF44.32
aF44.419998
aF44.240002
aF44.369999
aI132500
aF44.369999
aa(lp2168
S'2017-02-13'
p2169
aF44.48
aF44.599998
aF44.459999
aF44.459999
aI130200
aF44.459999
aa(lp2170
S'2017-02-14'
p2171
aF44.419998
aF44.549999
aF44.349998
aF44.52
aI130500
aF44.52
aa(lp2172
S'2017-02-15'
p2173
aF44.470001
aF44.810001
aF44.43
aF44.75
aI139800
aF44.75
aa(lp2174
S'2017-02-16'
p2175
aF44.77
aF44.82
aF44.57
aF44.759998
aI228800
aF44.759998
aa(lp2176
S'2017-02-17'
p2177
aF44.619999
aF44.889999
aF44.580002
aF44.889999
aI118500
aF44.889999
aa(lp2178
S'2017-02-21'
p2179
aF45.0
aF45.200001
aF44.990002
aF45.169998
aI343100
aF45.169998
aa(lp2180
S'2017-02-22'
p2181
aF45.099998
aF45.099998
aF44.970001
aF45.02
aI121700
aF45.02
aa(lp2182
S'2017-02-23'
p2183
aF45.110001
aF45.119999
aF44.779999
aF44.93
aI436400
aF44.93
aa(lp2184
S'2017-02-24'
p2185
aF44.720001
aF45.080002
aF44.709999
aF45.060001
aI151100
aF45.060001
aa(lp2186
S'2017-02-27'
p2187
aF45.09
aF45.220001
aF45.029999
aF45.220001
aI76000
aF45.220001
aa(lp2188
S'2017-02-28'
p2189
aF45.18
aF45.27
aF45.09
aF45.119999
aI74300
aF45.119999
aa(lp2190
S'2017-03-01'
p2191
aF45.470001
aF45.75
aF45.470001
aF45.669998
aI263400
aF45.669998
aa(lp2192
S'2017-03-02'
p2193
aF45.66
aF45.66
aF45.209999
aF45.240002
aI118300
aF45.240002
aa(lp2194
S'2017-03-03'
p2195
aF45.119999
aF45.290001
aF45.09
aF45.240002
aI78400
aF45.240002
aa(lp2196
S'2017-03-06'
p2197
aF45.110001
aF45.189999
aF44.98
aF45.099998
aI130900
aF45.099998
aa(lp2198
S'2017-03-07'
p2199
aF45.009998
aF45.139999
aF44.959999
aF44.970001
aI89700
aF44.970001
aa(lp2200
S'2017-03-08'
p2201
aF45.029999
aF45.09
aF44.849998
aF44.889999
aI126000
aF44.889999
aa(lp2202
S'2017-03-09'
p2203
aF44.880001
aF45.0
aF44.709999
aF44.889999
aI108200
aF44.889999
aa(lp2204
S'2017-03-10'
p2205
aF45.099998
aF45.189999
aF44.93
aF45.099998
aI76000
aF45.099998
aa(lp2206
S'2017-03-13'
p2207
aF45.110001
aF45.299999
aF45.110001
aF45.290001
aI167900
aF45.290001
aa(lp2208
S'2017-03-14'
p2209
aF45.16
aF45.169998
aF44.959999
aF45.080002
aI70000
aF45.080002
aa(lp2210
S'2017-03-15'
p2211
aF45.16
aF45.540001
aF45.110001
aF45.419998
aI90800
aF45.419998
aa(lp2212
S'2017-03-16'
p2213
aF45.52
aF45.52
aF45.259998
aF45.34
aI84300
aF45.34
aa(lp2214
S'2017-03-17'
p2215
aF45.43
aF45.509998
aF45.34
aF45.439999
aI57500
aF45.439999
aa(lp2216
S'2017-03-20'
p2217
aF45.419998
aF45.470001
aF45.290001
aF45.349998
aI78100
aF45.349998
aa(lp2218
S'2017-03-21'
p2219
aF45.52
aF45.52
aF44.650002
aF44.700001
aI199400
aF44.700001
aa(lp2220
S'2017-03-22'
p2221
aF44.639999
aF44.889999
aF44.610001
aF44.860001
aI114600
aF44.860001
aa(lp2222
S'2017-03-23'
p2223
aF44.810001
aF45.099998
aF44.790001
aF44.830002
aI55200
aF44.830002
aa(lp2224
S'2017-03-24'
p2225
aF44.939999
aF45.060001
aF44.689999
aF44.810001
aI150000
aF44.810001
aa(lp2226
S'2017-03-27'
p2227
aF44.389999
aF44.889999
aF44.32
aF44.82
aI88000
aF44.82
aa(lp2228
S'2017-03-28'
p2229
aF44.810001
aF45.23
aF44.75
aF45.16
aI77600
aF45.16
aa(lp2230
S'2017-03-29'
p2231
aF45.09
aF45.200001
aF44.91
aF45.18
aI72700
aF45.18
aa(lp2232
S'2017-03-30'
p2233
aF45.16
aF45.34
aF45.16
aF45.34
aI145200
aF45.34
aa(lp2234
S'2017-03-31'
p2235
aF45.299999
aF45.419998
aF45.25
aF45.290001
aI62300
aF45.290001
aa(lp2236
S'2017-04-03'
p2237
aF45.34
aF45.34
aF44.860001
aF45.09
aI214200
aF45.09
aa(lp2238
S'2017-04-04'
p2239
aF44.990002
aF45.200001
aF44.959999
aF45.029999
aI46700
aF45.029999
aa(lp2240
S'2017-04-05'
p2241
aF45.240002
aF45.360001
aF44.77
aF44.799999
aI78700
aF44.799999
aa(lp2242
S'2017-04-06'
p2243
aF44.799999
aF44.919998
aF44.59
aF44.830002
aI96500
aF44.830002
aa(lp2244
S'2017-04-07'
p2245
aF44.75
aF44.830002
aF44.669998
aF44.720001
aI41800
aF44.720001
aa(lp2246
S'2017-04-10'
p2247
aF44.779999
aF44.959999
aF44.639999
aF44.759998
aI51800
aF44.759998
aa(lp2248
S'2017-04-11'
p2249
aF44.700001
aF44.889999
aF44.470001
aF44.889999
aI70500
aF44.889999
aa(lp2250
S'2017-04-12'
p2251
aF44.799999
aF44.799999
aF44.439999
aF44.439999
aI59500
aF44.439999
aa(lp2252
S'2017-04-13'
p2253
aF44.389999
aF44.580002
aF44.119999
aF44.119999
aI104500
aF44.119999
aa(lp2254
S'2017-04-17'
p2255
aF44.209999
aF44.59
aF44.16
aF44.560001
aI57900
aF44.560001
aa(lp2256
S'2017-04-18'
p2257
aF44.43
aF44.619999
aF44.41
aF44.599998
aI46700
aF44.599998
aa(lp2258
S'2017-04-19'
p2259
aF44.68
aF44.869999
aF44.639999
aF44.720001
aI65700
aF44.720001
aa(lp2260
S'2017-04-20'
p2261
aF44.84
aF45.18
aF44.82
aF45.130001
aI124300
aF45.130001
aa(lp2262
S'2017-04-21'
p2263
aF45.139999
aF45.209999
aF45.029999
aF45.130001
aI74400
aF45.130001
aa(lp2264
S'2017-04-24'
p2265
aF45.549999
aF45.740002
aF45.549999
aF45.66
aI87400
aF45.66
aa(lp2266
S'2017-04-25'
p2267
aF45.790001
aF45.970001
aF45.700001
aF45.869999
aI105600
aF45.869999
aa(lp2268
S'2017-04-26'
p2269
aF45.810001
aF46.0
aF45.790001
aF45.82
aI42600
aF45.82
aa(lp2270
S'2017-04-27'
p2271
aF45.91
aF46.189999
aF45.91
aF46.119999
aI78600
aF46.119999
aa(lp2272
S'2017-04-28'
p2273
aF46.029999
aF46.18
aF45.830002
aF45.830002
aI89200
aF45.830002
aa(lp2274
S'2017-05-01'
p2275
aF45.950001
aF46.049999
aF45.779999
aF45.950001
aI1053100
aF45.950001
aa(lp2276
S'2017-05-02'
p2277
aF45.950001
aF45.990002
aF45.689999
aF45.779999
aI141300
aF45.779999
aa(lp2278
S'2017-05-03'
p2279
aF45.75
aF45.799999
aF45.490002
aF45.630001
aI220500
aF45.630001
aaa(lp2280
(lp2281
S'2015-02-02'
p2282
aF39.59
aF40.049999
aF39.25
aF40.029999
aI26000
aF38.587814
aa(lp2283
S'2015-02-03'
p2284
aF40.419998
aF40.759998
aF40.34
aF40.759998
aI37800
aF39.291513
aa(lp2285
S'2015-02-04'
p2286
aF40.68
aF40.93
aF40.610001
aF40.66
aI34100
aF39.195117
aa(lp2287
S'2015-02-05'
p2288
aF40.880001
aF41.080002
aF40.880001
aF41.029999
aI32400
aF39.551786
aa(lp2289
S'2015-02-06'
p2290
aF41.060001
aF41.299999
aF40.93
aF41.02
aI18000
aF39.542148
aa(lp2291
S'2015-02-09'
p2292
aF40.91
aF41.009998
aF40.799999
aF40.860001
aI21900
aF39.387912
aa(lp2293
S'2015-02-10'
p2294
aF41.110001
aF41.299999
aF40.900002
aF41.27
aI17900
aF39.783141
aa(lp2295
S'2015-02-11'
p2296
aF41.119999
aF41.32
aF41.02
aF41.27
aI19400
aF39.783141
aa(lp2297
S'2015-02-12'
p2298
aF41.459999
aF41.639999
aF41.459999
aF41.619999
aI40100
aF40.12053
aa(lp2299
S'2015-02-13'
p2300
aF41.580002
aF41.799999
aF41.580002
aF41.799999
aI18700
aF40.294045
aa(lp2301
S'2015-02-17'
p2302
aF41.77
aF41.889999
aF41.630001
aF41.860001
aI75100
aF40.351885
aa(lp2303
S'2015-02-18'
p2304
aF41.82
aF41.849998
aF41.720001
aF41.830002
aI75800
aF40.322967
aa(lp2305
S'2015-02-19'
p2306
aF41.73
aF41.860001
aF41.529999
aF41.759998
aI118500
aF40.255485
aa(lp2307
S'2015-02-20'
p2308
aF41.610001
aF42.0
aF41.509998
aF41.950001
aI29500
aF40.438642
aa(lp2309
S'2015-02-23'
p2310
aF41.860001
aF42.040001
aF41.860001
aF42.040001
aI53100
aF40.5254
aa(lp2311
S'2015-02-24'
p2312
aF42.119999
aF42.220001
aF41.990002
aF42.169998
aI30100
aF40.650714
aa(lp2313
S'2015-02-25'
p2314
aF42.209999
aF42.209999
aF41.950001
aF42.049999
aI72300
aF40.535038
aa(lp2315
S'2015-02-26'
p2316
aF42.029999
aF42.029999
aF41.849998
aF41.919998
aI16500
aF40.409721
aa(lp2317
S'2015-02-27'
p2318
aF42.02
aF42.02
aF41.830002
aF41.860001
aI39000
aF40.351885
aa(lp2319
S'2015-03-02'
p2320
aF41.799999
aF41.98
aF41.799999
aF41.93
aI11200
aF40.419363
aa(lp2321
S'2015-03-03'
p2322
aF41.939999
aF41.939999
aF41.669998
aF41.84
aI25500
aF40.332605
aa(lp2323
S'2015-03-04'
p2324
aF41.68
aF41.689999
aF41.400002
aF41.66
aI22600
aF40.15909
aa(lp2325
S'2015-03-05'
p2326
aF41.73
aF41.759998
aF41.619999
aF41.740002
aI31700
aF40.236209
aa(lp2327
S'2015-03-06'
p2328
aF41.560001
aF41.619999
aF41.09
aF41.200001
aI63000
aF39.715663
aa(lp2329
S'2015-03-09'
p2330
aF41.09
aF41.450001
aF41.09
aF41.279999
aI49000
aF39.792779
aa(lp2331
S'2015-03-10'
p2332
aF40.970001
aF41.0
aF40.689999
aF40.700001
aI26700
aF39.233677
aa(lp2333
S'2015-03-11'
p2334
aF40.779999
aF40.779999
aF40.599998
aF40.630001
aI229400
aF39.166199
aa(lp2335
S'2015-03-12'
p2336
aF40.860001
aF41.16
aF40.860001
aF41.150002
aI41100
aF39.667465
aa(lp2337
S'2015-03-13'
p2338
aF41.07
aF41.080002
aF40.669998
aF40.939999
aI51300
aF39.465028
aa(lp2339
S'2015-03-16'
p2340
aF41.16
aF41.509998
aF41.16
aF41.459999
aI14400
aF39.966294
aa(lp2341
S'2015-03-17'
p2342
aF41.369999
aF41.41
aF41.16
aF41.349998
aI28800
aF39.860257
aa(lp2343
S'2015-03-18'
p2344
aF41.27
aF42.049999
aF41.130001
aF41.810001
aI22400
aF40.303687
aa(lp2345
S'2015-03-19'
p2346
aF41.650002
aF41.77
aF41.490002
aF41.580002
aI27900
aF40.081974
aa(lp2347
S'2015-03-20'
p2348
aF41.84
aF42.110001
aF41.700001
aF41.970001
aI30600
aF40.457922
aa(lp2349
S'2015-03-23'
p2350
aF41.98
aF42.16
aF41.939999
aF41.939999
aI18500
aF40.429001
aa(lp2351
S'2015-03-24'
p2352
aF41.970001
aF41.98
aF41.669998
aF41.669998
aI27400
aF40.168728
aa(lp2353
S'2015-03-25'
p2354
aF41.759998
aF41.799999
aF41.220001
aF41.220001
aI29300
aF39.734943
aa(lp2355
S'2015-03-26'
p2356
aF41.009998
aF41.290001
aF40.91
aF41.130001
aI28300
aF39.648185
aa(lp2357
S'2015-03-27'
p2358
aF41.150002
aF41.189999
aF41.029999
aF41.139999
aI16100
aF39.657824
aa(lp2359
S'2015-03-30'
p2360
aF41.349998
aF41.759998
aF41.349998
aF41.709999
aI26800
aF40.207287
aa(lp2361
S'2015-03-31'
p2362
aF41.57
aF41.709999
aF41.380001
aF41.450001
aI41700
aF39.956656
aa(lp2363
S'2015-04-01'
p2364
aF41.32
aF41.32
aF41.0
aF41.150002
aI29900
aF39.667465
aa(lp2365
S'2015-04-02'
p2366
aF41.060001
aF41.279999
aF40.939999
aF41.139999
aI33700
aF39.8272
aa(lp2367
S'2015-04-06'
p2368
aF41.049999
aF41.540001
aF41.049999
aF41.450001
aI19000
aF40.127309
aa(lp2369
S'2015-04-07'
p2370
aF41.48
aF41.490002
aF41.310001
aF41.310001
aI25000
aF39.991777
aa(lp2371
S'2015-04-08'
p2372
aF41.380001
aF41.490002
aF41.25
aF41.369999
aI78500
aF40.04986
aa(lp2373
S'2015-04-09'
p2374
aF41.400002
aF41.560001
aF41.240002
aF41.560001
aI11700
aF40.233799
aa(lp2375
S'2015-04-10'
p2376
aF41.689999
aF41.759998
aF41.549999
aF41.759998
aI37800
aF40.427414
aa(lp2377
S'2015-04-13'
p2378
aF41.639999
aF41.790001
aF41.470001
aF41.529999
aI30900
aF40.204754
aa(lp2379
S'2015-04-14'
p2380
aF41.419998
aF41.639999
aF41.349998
aF41.610001
aI19000
aF40.282203
aa(lp2381
S'2015-04-15'
p2382
aF41.799999
aF41.919998
aF41.759998
aF41.77
aI47500
aF40.437097
aa(lp2383
S'2015-04-16'
p2384
aF41.720001
aF41.889999
aF41.68
aF41.740002
aI19300
aF40.408056
aa(lp2385
S'2015-04-17'
p2386
aF41.630001
aF41.630001
aF41.130001
aF41.299999
aI19000
aF39.982094
aa(lp2387
S'2015-04-20'
p2388
aF41.599998
aF41.720001
aF41.59
aF41.599998
aI19000
aF40.27252
aa(lp2389
S'2015-04-21'
p2390
aF41.84
aF41.84
aF41.509998
aF41.580002
aI17100
aF40.253162
aa(lp2391
S'2015-04-22'
p2392
aF41.720001
aF41.790001
aF41.400002
aF41.759998
aI37600
aF40.427414
aa(lp2393
S'2015-04-23'
p2394
aF41.599998
aF41.990002
aF41.599998
aF41.880001
aI13800
aF40.543588
aa(lp2395
S'2015-04-24'
p2396
aF41.990002
aF42.0
aF41.860001
aF41.970001
aI45500
aF40.630716
aa(lp2397
S'2015-04-27'
p2398
aF42.009998
aF42.07
aF41.759998
aF41.790001
aI13100
aF40.456459
aa(lp2399
S'2015-04-28'
p2400
aF41.709999
aF41.919998
aF41.59
aF41.91
aI17400
aF40.572629
aa(lp2401
S'2015-04-29'
p2402
aF41.77
aF41.860001
aF41.59
aF41.740002
aI32400
aF40.408056
aa(lp2403
S'2015-04-30'
p2404
aF41.689999
aF41.720001
aF41.220001
aF41.32
aI49500
aF40.001456
aa(lp2405
S'2015-05-01'
p2406
aF41.59
aF41.810001
aF41.490002
aF41.77
aI22600
aF40.437097
aa(lp2407
S'2015-05-04'
p2408
aF41.959999
aF42.009998
aF41.91
aF41.959999
aI20100
aF40.621033
aa(lp2409
S'2015-05-05'
p2410
aF41.860001
aF41.860001
aF41.439999
aF41.48
aI27100
aF40.15635
aa(lp2411
S'2015-05-06'
p2412
aF41.689999
aF41.689999
aF41.099998
aF41.299999
aI51500
aF39.982094
aa(lp2413
S'2015-05-07'
p2414
aF41.200001
aF41.509998
aF41.169998
aF41.43
aI93200
aF40.107947
aa(lp2415
S'2015-05-08'
p2416
aF41.889999
aF42.0
aF41.860001
aF41.98
aI60300
aF40.640395
aa(lp2417
S'2015-05-11'
p2418
aF41.990002
aF41.990002
aF41.810001
aF41.830002
aI12600
aF40.495184
aa(lp2419
S'2015-05-12'
p2420
aF41.709999
aF41.810001
aF41.490002
aF41.700001
aI34800
aF40.369331
aa(lp2421
S'2015-05-13'
p2422
aF41.779999
aF41.889999
aF41.639999
aF41.68
aI46100
aF40.349969
aa(lp2423
S'2015-05-14'
p2424
aF41.990002
aF42.040001
aF41.900002
aF42.029999
aI31300
aF40.688799
aa(lp2425
S'2015-05-15'
p2426
aF42.029999
aF42.099998
aF41.970001
aF42.09
aI23900
aF40.746886
aa(lp2427
S'2015-05-18'
p2428
aF42.099998
aF42.279999
aF42.080002
aF42.25
aI8000
aF40.90178
aa(lp2429
S'2015-05-19'
p2430
aF42.310001
aF42.310001
aF42.080002
aF42.130001
aI18500
aF40.78561
aa(lp2431
S'2015-05-20'
p2432
aF42.25
aF42.279999
aF42.049999
aF42.150002
aI22700
aF40.804972
aa(lp2433
S'2015-05-21'
p2434
aF42.16
aF42.32
aF42.16
aF42.32
aI8200
aF40.969546
aa(lp2435
S'2015-05-22'
p2436
aF42.279999
aF42.279999
aF42.189999
aF42.220001
aI11300
aF40.872738
aa(lp2437
S'2015-05-26'
p2438
aF42.0
aF42.0
aF41.610001
aF41.68
aI46300
aF40.349969
aa(lp2439
S'2015-05-27'
p2440
aF41.860001
aF42.060001
aF41.75
aF41.990002
aI12100
aF40.650078
aa(lp2441
S'2015-05-28'
p2442
aF42.040001
aF42.040001
aF41.849998
aF42.0
aI16400
aF40.659757
aa(lp2443
S'2015-05-29'
p2444
aF41.900002
aF41.970001
aF41.68
aF41.82
aI12400
aF40.485501
aa(lp2445
S'2015-06-01'
p2446
aF41.98
aF42.0
aF41.720001
aF41.860001
aI12700
aF40.524225
aa(lp2447
S'2015-06-02'
p2448
aF41.740002
aF41.98
aF41.630001
aF41.759998
aI150600
aF40.427414
aa(lp2449
S'2015-06-03'
p2450
aF41.970001
aF42.0
aF41.77
aF41.91
aI25200
aF40.572629
aa(lp2451
S'2015-06-04'
p2452
aF41.779999
aF41.810001
aF41.450001
aF41.470001
aI18400
aF40.146671
aa(lp2453
S'2015-06-05'
p2454
aF41.540001
aF41.610001
aF41.330002
aF41.400002
aI32700
aF40.078905
aa(lp2455
S'2015-06-08'
p2456
aF41.48
aF41.48
aF41.18
aF41.23
aI19400
aF39.914328
aa(lp2457
S'2015-06-09'
p2458
aF41.27
aF41.349998
aF41.130001
aF41.220001
aI82300
aF39.904649
aa(lp2459
S'2015-06-10'
p2460
aF41.490002
aF41.77
aF41.490002
aF41.73
aI79100
aF40.398373
aa(lp2461
S'2015-06-11'
p2462
aF41.830002
aF41.93
aF41.75
aF41.790001
aI17700
aF40.456459
aa(lp2463
S'2015-06-12'
p2464
aF41.630001
aF41.630001
aF41.459999
aF41.5
aI165800
aF40.175713
aa(lp2465
S'2015-06-15'
p2466
aF41.299999
aF41.41
aF41.09
aF41.310001
aI27400
aF39.991777
aa(lp2467
S'2015-06-16'
p2468
aF41.279999
aF41.580002
aF41.279999
aF41.560001
aI20700
aF40.233799
aa(lp2469
S'2015-06-17'
p2470
aF41.66
aF41.77
aF41.439999
aF41.669998
aI8200
aF40.340286
aa(lp2471
S'2015-06-18'
p2472
aF41.779999
aF42.09
aF41.779999
aF42.029999
aI25500
aF40.688799
aa(lp2473
S'2015-06-19'
p2474
aF41.93
aF42.009998
aF41.860001
aF41.93
aI16600
aF40.591991
aa(lp2475
S'2015-06-22'
p2476
aF42.110001
aF42.200001
aF42.009998
aF42.029999
aI20400
aF40.688799
aa(lp2477
S'2015-06-23'
p2478
aF42.09
aF42.150002
aF42.0
aF42.07
aI37800
aF40.727523
aa(lp2479
S'2015-06-24'
p2480
aF42.049999
aF42.049999
aF41.77
aF41.779999
aI18700
aF40.446777
aa(lp2481
S'2015-06-25'
p2482
aF41.93
aF41.93
aF41.630001
aF41.700001
aI20400
aF40.369331
aa(lp2483
S'2015-06-26'
p2484
aF41.610001
aF41.73
aF41.549999
aF41.630001
aI11400
aF40.301565
aa(lp2485
S'2015-06-29'
p2486
aF41.25
aF41.380001
aF40.82
aF40.82
aI38200
aF39.517412
aa(lp2487
S'2015-06-30'
p2488
aF41.110001
aF41.110001
aF40.810001
aF40.950001
aI31100
aF39.643264
aa(lp2489
S'2015-07-01'
p2490
aF41.220001
aF41.220001
aF41.029999
aF41.139999
aI19000
aF39.8272
aa(lp2491
S'2015-07-02'
p2492
aF41.27
aF41.310001
aF41.049999
aF41.139999
aI16800
aF39.8272
aa(lp2493
S'2015-07-06'
p2494
aF40.68
aF41.0
aF40.610001
aF40.810001
aI15500
aF39.6736
aa(lp2495
S'2015-07-07'
p2496
aF40.919998
aF41.220001
aF40.389999
aF41.189999
aI54000
aF40.043015
aa(lp2497
S'2015-07-08'
p2498
aF40.880001
aF40.880001
aF40.43
aF40.540001
aI27900
aF39.411118
aa(lp2499
S'2015-07-09'
p2500
aF40.919998
aF40.950001
aF40.540001
aF40.630001
aI195700
aF39.498612
aa(lp2501
S'2015-07-10'
p2502
aF41.099998
aF41.130001
aF40.849998
aF41.060001
aI38500
aF39.916638
aa(lp2503
S'2015-07-13'
p2504
aF41.349998
aF41.490002
aF41.330002
aF41.450001
aI25300
aF40.295778
aa(lp2505
S'2015-07-14'
p2506
aF41.48
aF41.700001
aF41.48
aF41.650002
aI14400
aF40.490209
aa(lp2507
S'2015-07-15'
p2508
aF41.599998
aF41.650002
aF41.439999
aF41.490002
aI16700
aF40.334665
aa(lp2509
S'2015-07-16'
p2510
aF41.75
aF41.790001
aF41.669998
aF41.790001
aI35000
aF40.62631
aa(lp2511
S'2015-07-17'
p2512
aF41.790001
aF41.790001
aF41.59
aF41.709999
aI17000
aF40.548536
aa(lp2513
S'2015-07-20'
p2514
aF41.810001
aF41.810001
aF41.580002
aF41.639999
aI14300
aF40.480485
aa(lp2515
S'2015-07-21'
p2516
aF41.599998
aF41.630001
aF41.360001
aF41.490002
aI12300
aF40.334665
aa(lp2517
S'2015-07-22'
p2518
aF41.34
aF41.509998
aF41.34
aF41.419998
aI26700
aF40.26661
aa(lp2519
S'2015-07-23'
p2520
aF41.490002
aF41.5
aF41.119999
aF41.139999
aI22600
aF39.994408
aa(lp2521
S'2015-07-24'
p2522
aF41.290001
aF41.290001
aF40.689999
aF40.759998
aI10900
aF39.624989
aa(lp2523
S'2015-07-27'
p2524
aF40.540001
aF40.639999
aF40.389999
aF40.43
aI65700
aF39.30418
aa(lp2525
S'2015-07-28'
p2526
aF40.700001
aF41.049999
aF40.5
aF40.990002
aI44300
aF39.848588
aa(lp2527
S'2015-07-29'
p2528
aF41.07
aF41.389999
aF41.040001
aF41.389999
aI24100
aF40.237447
aa(lp2529
S'2015-07-30'
p2530
aF41.27
aF41.299999
aF41.09
aF41.299999
aI20500
aF40.149953
aa(lp2531
S'2015-07-31'
p2532
aF41.34
aF41.349998
aF41.130001
aF41.130001
aI43500
aF39.984689
aa(lp2533
S'2015-08-03'
p2534
aF41.169998
aF41.169998
aF40.830002
aF40.970001
aI39800
aF39.829144
aa(lp2535
S'2015-08-04'
p2536
aF41.0
aF41.029999
aF40.849998
aF40.970001
aI38900
aF39.829144
aa(lp2537
S'2015-08-05'
p2538
aF41.220001
aF41.259998
aF41.009998
aF41.060001
aI20700
aF39.916638
aa(lp2539
S'2015-08-06'
p2540
aF41.07
aF41.07
aF40.68
aF40.860001
aI20000
aF39.722207
aa(lp2541
S'2015-08-07'
p2542
aF40.82
aF40.82
aF40.52
aF40.619999
aI14700
aF39.488888
aa(lp2543
S'2015-08-10'
p2544
aF40.869999
aF41.209999
aF40.869999
aF41.16
aI20800
aF40.013852
aa(lp2545
S'2015-08-11'
p2546
aF40.900002
aF40.959999
aF40.740002
aF40.900002
aI21000
aF39.761094
aa(lp2547
S'2015-08-12'
p2548
aF40.68
aF41.02
aF40.259998
aF41.02
aI31300
aF39.877751
aa(lp2549
S'2015-08-13'
p2550
aF41.009998
aF41.049999
aF40.869999
aF40.880001
aI7300
aF39.74165
aa(lp2551
S'2015-08-14'
p2552
aF40.93
aF41.029999
aF40.84
aF41.029999
aI19500
aF39.887471
aa(lp2553
S'2015-08-17'
p2554
aF40.950001
aF41.189999
aF40.799999
aF41.18
aI7800
aF40.033296
aa(lp2555
S'2015-08-18'
p2556
aF41.110001
aF41.130001
aF41.029999
aF41.09
aI13300
aF39.945802
aa(lp2557
S'2015-08-19'
p2558
aF40.970001
aF40.970001
aF40.57
aF40.799999
aI27000
aF39.663876
aa(lp2559
S'2015-08-20'
p2560
aF40.470001
aF40.5
aF40.0
aF40.0
aI118900
aF38.886154
aa(lp2561
S'2015-08-21'
p2562
aF39.52
aF39.650002
aF38.689999
aF38.700001
aI68900
aF37.622354
aa(lp2563
S'2015-08-24'
p2564
aF37.93
aF38.209999
aF21.75
aF37.18
aI188200
aF36.14468
aa(lp2565
S'2015-08-25'
p2566
aF37.93
aF38.200001
aF36.709999
aF36.709999
aI41000
aF35.687767
aa(lp2567
S'2015-08-26'
p2568
aF37.529999
aF37.970001
aF36.779999
aF37.93
aI83000
aF36.873796
aa(lp2569
S'2015-08-27'
p2570
aF38.389999
aF38.880001
aF38.200001
aF38.82
aI37000
aF37.739012
aa(lp2571
S'2015-08-28'
p2572
aF38.700001
aF38.91
aF38.669998
aF38.799999
aI35700
aF37.719568
aa(lp2573
S'2015-08-31'
p2574
aF38.709999
aF38.880001
aF38.549999
aF38.700001
aI51700
aF37.622354
aa(lp2575
S'2015-09-01'
p2576
aF37.98
aF38.080002
aF37.509998
aF37.619999
aI41300
aF36.572427
aa(lp2577
S'2015-09-02'
p2578
aF37.830002
aF38.209999
aF37.75
aF38.209999
aI19100
aF37.145997
aa(lp2579
S'2015-09-03'
p2580
aF38.400002
aF38.779999
aF38.259998
aF38.360001
aI18400
aF37.291822
aa(lp2581
S'2015-09-04'
p2582
aF37.779999
aF37.98
aF37.630001
aF37.900002
aI19100
aF36.844632
aa(lp2583
S'2015-09-08'
p2584
aF38.439999
aF38.720001
aF38.310001
aF38.709999
aI18700
aF37.632074
aa(lp2585
S'2015-09-09'
p2586
aF39.009998
aF39.07
aF38.18
aF38.200001
aI17300
aF37.136278
aa(lp2587
S'2015-09-10'
p2588
aF38.16
aF38.619999
aF38.150002
aF38.369999
aI19500
aF37.301542
aa(lp2589
S'2015-09-11'
p2590
aF38.27
aF38.560001
aF38.189999
aF38.560001
aI23000
aF37.486253
aa(lp2591
S'2015-09-14'
p2592
aF38.529999
aF38.529999
aF38.32
aF38.41
aI17700
aF37.340429
aa(lp2593
S'2015-09-15'
p2594
aF38.540001
aF38.939999
aF38.439999
aF38.84
aI13900
aF37.758455
aa(lp2595
S'2015-09-16'
p2596
aF38.919998
aF39.25
aF38.919998
aF39.220001
aI13400
aF38.127875
aa(lp2597
S'2015-09-17'
p2598
aF39.169998
aF39.580002
aF39.060001
aF39.060001
aI13300
aF37.97233
aa(lp2599
S'2015-09-18'
p2600
aF38.599998
aF38.869999
aF38.349998
aF38.439999
aI31500
aF37.369592
aa(lp2601
S'2015-09-21'
p2602
aF38.619999
aF38.880001
aF38.5
aF38.669998
aI16800
aF37.593187
aa(lp2603
S'2015-09-22'
p2604
aF38.119999
aF38.209999
aF37.950001
aF38.200001
aI24900
aF37.136278
aa(lp2605
S'2015-09-23'
p2606
aF38.189999
aF38.279999
aF37.970001
aF38.099998
aI11400
aF37.03906
aa(lp2607
S'2015-09-24'
p2608
aF37.810001
aF38.040001
aF37.470001
aF37.889999
aI11500
aF36.834908
aa(lp2609
S'2015-09-25'
p2610
aF38.310001
aF38.310001
aF37.799999
aF37.900002
aI14300
aF36.844632
aa(lp2611
S'2015-09-28'
p2612
aF37.73
aF37.73
aF36.950001
aF36.990002
aI61700
aF35.959972
aa(lp2613
S'2015-09-29'
p2614
aF37.029999
aF37.290001
aF36.84
aF37.07
aI17500
aF36.037743
aa(lp2615
S'2015-09-30'
p2616
aF37.48
aF37.689999
aF37.330002
aF37.689999
aI10100
aF36.640477
aa(lp2617
S'2015-10-01'
p2618
aF37.779999
aF37.779999
aF37.34
aF37.619999
aI16700
aF36.572427
aa(lp2619
S'2015-10-02'
p2620
aF37.299999
aF38.330002
aF37.209999
aF38.32
aI43200
aF37.252935
aa(lp2621
S'2015-10-05'
p2622
aF38.389999
aF39.0
aF38.389999
aF38.98
aI437800
aF38.06741
aa(lp2623
S'2015-10-06'
p2624
aF38.919998
aF39.080002
aF38.799999
aF38.880001
aI31800
aF37.969752
aa(lp2625
S'2015-10-07'
p2626
aF39.209999
aF39.290001
aF38.84
aF39.169998
aI20100
aF38.25296
aa(lp2627
S'2015-10-08'
p2628
aF39.130001
aF39.650002
aF39.130001
aF39.619999
aI29100
aF38.692425
aa(lp2629
S'2015-10-09'
p2630
aF39.68
aF39.740002
aF39.48
aF39.610001
aI88500
aF38.682661
aa(lp2631
S'2015-10-12'
p2632
aF39.77
aF39.77
aF39.509998
aF39.68
aI12900
aF38.751022
aa(lp2633
S'2015-10-13'
p2634
aF39.52
aF39.799999
aF39.439999
aF39.439999
aI33300
aF38.516639
aa(lp2635
S'2015-10-14'
p2636
aF39.43
aF39.52
aF39.0
aF39.07
aI23700
aF38.155303
aa(lp2637
S'2015-10-15'
p2638
aF39.119999
aF39.549999
aF39.049999
aF39.5
aI13300
aF38.575236
aa(lp2639
S'2015-10-16'
p2640
aF39.830002
aF39.830002
aF39.450001
aF39.610001
aI36200
aF38.682661
aa(lp2641
S'2015-10-19'
p2642
aF39.639999
aF39.639999
aF39.470001
aF39.560001
aI7900
aF38.633832
aa(lp2643
S'2015-10-20'
p2644
aF39.549999
aF39.740002
aF39.52
aF39.540001
aI24600
aF38.6143
aa(lp2645
S'2015-10-21'
p2646
aF39.619999
aF39.689999
aF39.290001
aF39.32
aI34000
aF38.39945
aa(lp2647
S'2015-10-22'
p2648
aF39.5
aF39.950001
aF39.5
aF39.950001
aI26100
aF39.014701
aa(lp2649
S'2015-10-23'
p2650
aF40.189999
aF40.23
aF39.970001
aF40.189999
aI32100
aF39.24908
aa(lp2651
S'2015-10-26'
p2652
aF40.099998
aF40.110001
aF39.98
aF40.009998
aI28100
aF39.073294
aa(lp2653
S'2015-10-27'
p2654
aF39.93
aF39.93
aF39.700001
aF39.860001
aI29300
aF38.926808
aa(lp2655
S'2015-10-28'
p2656
aF39.869999
aF40.16
aF39.82
aF40.09
aI12100
aF39.151423
aa(lp2657
S'2015-10-29'
p2658
aF40.150002
aF40.349998
aF40.130001
aF40.279999
aI16000
aF39.336973
aa(lp2659
S'2015-10-30'
p2660
aF40.240002
aF40.400002
aF40.119999
aF40.119999
aI26600
aF39.18072
aa(lp2661
S'2015-11-02'
p2662
aF40.380001
aF40.709999
aF40.369999
aF40.700001
aI79900
aF39.747142
aa(lp2663
S'2015-11-03'
p2664
aF40.57
aF40.950001
aF40.57
aF40.889999
aI73500
aF39.932693
aa(lp2665
S'2015-11-04'
p2666
aF40.880001
aF40.880001
aF40.599998
aF40.650002
aI25600
aF39.698314
aa(lp2667
S'2015-11-05'
p2668
aF40.650002
aF40.779999
aF40.419998
aF40.540001
aI101600
aF39.590889
aa(lp2669
S'2015-11-06'
p2670
aF40.5
aF40.57
aF40.27
aF40.57
aI16200
aF39.620185
aa(lp2671
S'2015-11-09'
p2672
aF40.540001
aF40.540001
aF40.049999
aF40.27
aI26600
aF39.327209
aa(lp2673
S'2015-11-10'
p2674
aF40.060001
aF40.310001
aF40.049999
aF40.259998
aI37900
aF39.317441
aa(lp2675
S'2015-11-11'
p2676
aF40.369999
aF40.369999
aF40.040001
aF40.060001
aI17200
aF39.122127
aa(lp2677
S'2015-11-12'
p2678
aF39.889999
aF39.889999
aF39.459999
aF39.459999
aI20100
aF38.536171
aa(lp2679
S'2015-11-13'
p2680
aF39.360001
aF39.360001
aF38.98
aF39.07
aI23500
aF38.155303
aa(lp2681
S'2015-11-16'
p2682
aF38.959999
aF39.66
aF38.959999
aF39.66
aI17000
aF38.73149
aa(lp2683
S'2015-11-17'
p2684
aF39.779999
aF39.990002
aF39.599998
aF39.709999
aI19000
aF38.780318
aa(lp2685
S'2015-11-18'
p2686
aF39.830002
aF40.32
aF39.830002
aF40.32
aI16600
aF39.376038
aa(lp2687
S'2015-11-19'
p2688
aF40.23
aF40.25
aF40.130001
aF40.18
aI12200
aF39.239316
aa(lp2689
S'2015-11-20'
p2690
aF40.380001
aF40.490002
aF40.220001
aF40.27
aI12200
aF39.327209
aa(lp2691
S'2015-11-23'
p2692
aF40.360001
aF40.509998
aF40.240002
aF40.279999
aI19200
aF39.336973
aa(lp2693
S'2015-11-24'
p2694
aF40.049999
aF40.5
aF40.049999
aF40.389999
aI17300
aF39.444399
aa(lp2695
S'2015-11-25'
p2696
aF40.360001
aF40.459999
aF40.34
aF40.369999
aI15400
aF39.424867
aa(lp2697
S'2015-11-27'
p2698
aF40.369999
aF40.43
aF40.310001
aF40.380001
aI3100
aF39.434635
aa(lp2699
S'2015-11-30'
p2700
aF40.48
aF40.48
aF40.23
aF40.25
aI11100
aF39.307677
aa(lp2701
S'2015-12-01'
p2702
aF40.41
aF40.66
aF40.369999
aF40.639999
aI25700
aF39.688546
aa(lp2703
S'2015-12-02'
p2704
aF40.580002
aF40.669998
aF40.139999
aF40.16
aI30800
aF39.219784
aa(lp2705
S'2015-12-03'
p2706
aF40.27
aF40.27
aF39.529999
aF39.650002
aI23200
aF38.721726
aa(lp2707
S'2015-12-04'
p2708
aF39.68
aF40.41
aF39.68
aF40.349998
aI22300
aF39.405334
aa(lp2709
S'2015-12-07'
p2710
aF40.23
aF40.240002
aF39.939999
aF40.07
aI18500
aF39.131891
aa(lp2711
S'2015-12-08'
p2712
aF39.599998
aF39.990002
aF39.599998
aF39.75
aI33500
aF38.819383
aa(lp2713
S'2015-12-09'
p2714
aF39.639999
aF40.07
aF39.360001
aF39.48
aI22100
aF38.555704
aa(lp2715
S'2015-12-10'
p2716
aF39.540001
aF39.919998
aF39.540001
aF39.650002
aI11100
aF38.721726
aa(lp2717
S'2015-12-11'
p2718
aF39.080002
aF39.32
aF38.84
aF38.860001
aI20500
aF37.95022
aa(lp2719
S'2015-12-14'
p2720
aF38.93
aF39.02
aF38.610001
aF39.009998
aI18300
aF38.096706
aa(lp2721
S'2015-12-15'
p2722
aF39.400002
aF39.580002
aF39.34
aF39.389999
aI17300
aF38.467811
aa(lp2723
S'2015-12-16'
p2724
aF39.650002
aF40.02
aF39.419998
aF39.959999
aI50200
aF39.024466
aa(lp2725
S'2015-12-17'
p2726
aF40.07
aF40.07
aF39.32
aF39.32
aI67800
aF38.39945
aa(lp2727
S'2015-12-18'
p2728
aF39.009998
aF39.189999
aF38.700001
aF38.700001
aI53800
aF37.793966
aa(lp2729
S'2015-12-21'
p2730
aF39.009998
aF39.18
aF38.849998
aF39.18
aI13400
aF38.262728
aa(lp2731
S'2015-12-22'
p2732
aF39.32
aF39.630001
aF39.209999
aF39.52
aI27500
aF38.594768
aa(lp2733
S'2015-12-23'
p2734
aF39.790001
aF40.139999
aF39.790001
aF40.130001
aI44000
aF39.190487
aa(lp2735
S'2015-12-24'
p2736
aF40.049999
aF40.189999
aF40.009998
aF40.07
aI35100
aF39.131891
aa(lp2737
S'2015-12-28'
p2738
aF39.93
aF39.93
aF39.689999
aF39.869999
aI19100
aF38.936572
aa(lp2739
S'2015-12-29'
p2740
aF39.900002
aF40.09
aF39.869999
aF40.0
aI21600
aF39.315972
aa(lp2741
S'2015-12-30'
p2742
aF39.959999
aF40.029999
aF39.73
aF39.73
aI33800
aF39.050589
aa(lp2743
S'2015-12-31'
p2744
aF39.66
aF39.709999
aF39.439999
aF39.439999
aI51400
aF38.765547
aa(lp2745
S'2016-01-04'
p2746
aF38.779999
aF38.939999
aF38.549999
aF38.939999
aI25000
aF38.274098
aa(lp2747
S'2016-01-05'
p2748
aF39.09
aF39.110001
aF38.82
aF39.09
aI42400
aF38.421534
aa(lp2749
S'2016-01-06'
p2750
aF38.509998
aF38.709999
aF38.349998
aF38.529999
aI79400
aF37.871109
aa(lp2751
S'2016-01-07'
p2752
aF37.799999
aF38.169998
aF37.549999
aF37.669998
aI50400
aF37.025815
aa(lp2753
S'2016-01-08'
p2754
aF37.849998
aF37.970001
aF37.220001
aF37.220001
aI162500
aF36.583513
aa(lp2755
S'2016-01-11'
p2756
aF37.369999
aF37.369999
aF36.709999
aF37.130001
aI34300
aF36.495052
aa(lp2757
S'2016-01-12'
p2758
aF37.299999
aF37.540001
aF36.93
aF37.369999
aI31500
aF36.730946
aa(lp2759
S'2016-01-13'
p2760
aF37.580002
aF37.580002
aF36.360001
aF36.439999
aI22100
aF35.816849
aa(lp2761
S'2016-01-14'
p2762
aF36.549999
aF37.200001
aF36.169998
aF36.98
aI53400
aF36.347616
aa(lp2763
S'2016-01-15'
p2764
aF36.02
aF36.34
aF35.73
aF36.110001
aI33800
aF35.492495
aa(lp2765
S'2016-01-19'
p2766
aF36.57
aF36.57
aF35.869999
aF36.259998
aI32800
aF35.639927
aa(lp2767
S'2016-01-20'
p2768
aF35.630001
aF35.869999
aF34.860001
aF35.700001
aI47000
aF35.089506
aa(lp2769
S'2016-01-21'
p2770
aF35.720001
aF36.349998
aF35.57
aF35.950001
aI47000
aF35.335231
aa(lp2771
S'2016-01-22'
p2772
aF36.540001
aF36.700001
aF36.43
aF36.639999
aI48900
aF36.01343
aa(lp2773
S'2016-01-25'
p2774
aF36.57
aF36.57
aF36.0
aF36.009998
aI59700
aF35.394202
aa(lp2775
S'2016-01-26'
p2776
aF36.16
aF36.68
aF36.16
aF36.639999
aI59300
aF36.01343
aa(lp2777
S'2016-01-27'
p2778
aF36.439999
aF36.93
aF36.099998
aF36.349998
aI30400
aF35.728388
aa(lp2779
S'2016-01-28'
p2780
aF36.540001
aF36.549999
aF36.130001
aF36.369999
aI32400
aF35.748047
aa(lp2781
S'2016-01-29'
p2782
aF36.529999
aF37.27
aF36.529999
aF37.259998
aI31200
aF36.622827
aa(lp2783
S'2016-02-01'
p2784
aF37.060001
aF37.5
aF36.959999
aF37.32
aI21500
aF36.681802
aa(lp2785
S'2016-02-02'
p2786
aF37.0
aF37.0
aF36.48
aF36.57
aI20500
aF35.944627
aa(lp2787
S'2016-02-03'
p2788
aF36.77
aF36.849998
aF36.110001
aF36.709999
aI17900
aF36.082233
aa(lp2789
S'2016-02-04'
p2790
aF36.689999
aF37.09
aF36.68
aF36.84
aI60700
aF36.210011
aa(lp2791
S'2016-02-05'
p2792
aF36.82
aF36.860001
aF36.330002
aF36.419998
aI23400
aF35.797191
aa(lp2793
S'2016-02-08'
p2794
aF36.009998
aF36.040001
aF35.470001
aF35.860001
aI23700
aF35.24677
aa(lp2795
S'2016-02-09'
p2796
aF35.490002
aF36.09
aF35.490002
aF35.84
aI40800
aF35.227111
aa(lp2797
S'2016-02-10'
p2798
aF36.029999
aF36.259998
aF35.790001
aF35.790001
aI22000
aF35.177967
aa(lp2799
S'2016-02-11'
p2800
aF35.240002
aF35.5
aF35.0
aF35.32
aI63500
aF34.716003
aa(lp2801
S'2016-02-12'
p2802
aF35.619999
aF36.02
aF35.57
aF36.0
aI14400
aF35.384375
aa(lp2803
S'2016-02-16'
p2804
aF36.450001
aF36.66
aF36.209999
aF36.639999
aI14700
aF36.01343
aa(lp2805
S'2016-02-17'
p2806
aF36.889999
aF37.34
aF36.889999
aF37.240002
aI23700
aF36.603172
aa(lp2807
S'2016-02-18'
p2808
aF37.16
aF37.259998
aF37.029999
aF37.07
aI36700
aF36.436077
aa(lp2809
S'2016-02-19'
p2810
aF36.950001
aF37.049999
aF36.77
aF37.0
aI21900
aF36.367274
aa(lp2811
S'2016-02-22'
p2812
aF37.419998
aF37.650002
aF37.419998
aF37.599998
aI36800
aF36.957012
aa(lp2813
S'2016-02-23'
p2814
aF37.619999
aF37.619999
aF37.220001
aF37.220001
aI33500
aF36.583513
aa(lp2815
S'2016-02-24'
p2816
aF36.959999
aF37.529999
aF36.779999
aF37.470001
aI38500
aF36.829238
aa(lp2817
S'2016-02-25'
p2818
aF37.529999
aF37.919998
aF37.450001
aF37.860001
aI47300
aF37.212568
aa(lp2819
S'2016-02-26'
p2820
aF38.080002
aF38.130001
aF37.860001
aF37.860001
aI24600
aF37.212568
aa(lp2821
S'2016-02-29'
p2822
aF37.810001
aF38.049999
aF37.580002
aF37.580002
aI60600
aF36.937358
aa(lp2823
S'2016-03-01'
p2824
aF37.939999
aF38.43
aF37.73
aF38.369999
aI39700
aF37.713845
aa(lp2825
S'2016-03-02'
p2826
aF38.310001
aF38.580002
aF38.310001
aF38.57
aI21900
aF37.910426
aa(lp2827
S'2016-03-03'
p2828
aF38.57
aF38.919998
aF38.48
aF38.900002
aI21400
aF38.234785
aa(lp2829
S'2016-03-04'
p2830
aF38.900002
aF39.25
aF38.84
aF39.07
aI59100
aF38.401876
aa(lp2831
S'2016-03-07'
p2832
aF38.82
aF39.349998
aF38.82
aF39.169998
aI15600
aF38.500164
aa(lp2833
S'2016-03-08'
p2834
aF39.02
aF39.02
aF38.720001
aF38.73
aI12900
aF38.06769
aa(lp2835
S'2016-03-09'
p2836
aF38.970001
aF39.07
aF38.869999
aF38.950001
aI17300
aF38.283929
aa(lp2837
S'2016-03-10'
p2838
aF39.169998
aF39.259998
aF38.619999
aF38.939999
aI16900
aF38.274098
aa(lp2839
S'2016-03-11'
p2840
aF39.299999
aF39.650002
aF39.299999
aF39.599998
aI35600
aF38.922811
aa(lp2841
S'2016-03-14'
p2842
aF39.509998
aF39.650002
aF39.380001
aF39.549999
aI75900
aF38.873667
aa(lp2843
S'2016-03-15'
p2844
aF39.349998
aF39.470001
aF39.259998
aF39.470001
aI20700
aF38.795037
aa(lp2845
S'2016-03-16'
p2846
aF39.360001
aF39.82
aF39.349998
aF39.759998
aI18200
aF39.080075
aa(lp2847
S'2016-03-17'
p2848
aF39.669998
aF40.07
aF39.669998
aF39.98
aI63400
aF39.296314
aa(lp2849
S'2016-03-18'
p2850
aF40.110001
aF40.259998
aF40.099998
aF40.209999
aI15900
aF39.52238
aa(lp2851
S'2016-03-21'
p2852
aF40.18
aF40.299999
aF40.130001
aF40.25
aI19300
aF39.561697
aa(lp2853
S'2016-03-22'
p2854
aF39.990002
aF40.330002
aF39.990002
aF40.189999
aI26200
aF39.502722
aa(lp2855
S'2016-03-23'
p2856
aF40.130001
aF40.130001
aF39.810001
aF39.880001
aI39100
aF39.198025
aa(lp2857
S'2016-03-24'
p2858
aF39.560001
aF39.830002
aF39.529999
aF39.810001
aI43700
aF39.129223
aa(lp2859
S'2016-03-28'
p2860
aF39.860001
aF39.98
aF39.779999
aF39.82
aI29600
aF39.13905
aa(lp2861
S'2016-03-29'
p2862
aF39.799999
aF40.200001
aF39.689999
aF40.18
aI36900
aF39.492895
aa(lp2863
S'2016-03-30'
p2864
aF40.34
aF40.509998
aF40.25
aF40.369999
aI16800
aF39.679644
aa(lp2865
S'2016-03-31'
p2866
aF40.330002
aF40.439999
aF40.209999
aF40.25
aI45100
aF39.561697
aa(lp2867
S'2016-04-01'
p2868
aF40.02
aF40.459999
aF39.93
aF40.41
aI38700
aF39.718961
aa(lp2869
S'2016-04-04'
p2870
aF40.189999
aF40.279999
aF39.990002
aF40.040001
aI26700
aF39.355289
aa(lp2871
S'2016-04-05'
p2872
aF39.73
aF39.82
aF39.580002
aF39.59
aI18200
aF38.912984
aa(lp2873
S'2016-04-06'
p2874
aF39.59
aF39.98
aF39.560001
aF39.98
aI38000
aF39.296314
aa(lp2875
S'2016-04-07'
p2876
aF39.720001
aF39.849998
aF39.32
aF39.509998
aI30500
aF38.83435
aa(lp2877
S'2016-04-08'
p2878
aF39.889999
aF39.889999
aF39.540001
aF39.59
aI46000
aF38.912984
aa(lp2879
S'2016-04-11'
p2880
aF39.790001
aF39.959999
aF39.540001
aF39.560001
aI27900
aF38.883498
aa(lp2881
S'2016-04-12'
p2882
aF39.52
aF39.970001
aF39.52
aF39.959999
aI17700
aF39.276655
aa(lp2883
S'2016-04-13'
p2884
aF40.119999
aF40.459999
aF40.119999
aF40.459999
aI32100
aF39.768105
aa(lp2885
S'2016-04-14'
p2886
aF40.490002
aF40.529999
aF40.360001
aF40.41
aI37400
aF39.718961
aa(lp2887
S'2016-04-15'
p2888
aF40.389999
aF40.450001
aF40.310001
aF40.43
aI41100
aF39.738619
aa(lp2889
S'2016-04-18'
p2890
aF40.240002
aF40.700001
aF40.240002
aF40.66
aI30700
aF39.964686
aa(lp2891
S'2016-04-19'
p2892
aF40.98
aF40.98
aF40.720001
aF40.869999
aI49700
aF40.171094
aa(lp2893
S'2016-04-20'
p2894
aF40.849998
aF41.18
aF40.830002
aF40.990002
aI50000
aF40.289044
aa(lp2895
S'2016-04-21'
p2896
aF41.209999
aF41.209999
aF40.700001
aF40.700001
aI27500
aF40.004003
aa(lp2897
S'2016-04-22'
p2898
aF40.689999
aF40.919998
aF40.669998
aF40.900002
aI26100
aF40.200583
aa(lp2899
S'2016-04-25'
p2900
aF40.669998
aF40.75
aF40.549999
aF40.720001
aI44500
aF40.023661
aa(lp2901
S'2016-04-26'
p2902
aF40.779999
aF40.970001
aF40.73
aF40.970001
aI96100
aF40.269386
aa(lp2903
S'2016-04-27'
p2904
aF40.830002
aF41.18
aF40.82
aF41.099998
aI39400
aF40.39716
aa(lp2905
S'2016-04-28'
p2906
aF40.790001
aF41.060001
aF40.52
aF40.580002
aI42500
aF39.886056
aa(lp2907
S'2016-04-29'
p2908
aF40.450001
aF40.450001
aF40.0
aF40.23
aI32400
aF39.542039
aa(lp2909
S'2016-05-02'
p2910
aF40.52
aF40.549999
aF40.220001
aF40.529999
aI40400
aF39.836908
aa(lp2911
S'2016-05-03'
p2912
aF40.34
aF40.34
aF39.959999
aF40.139999
aI35700
aF39.453578
aa(lp2913
S'2016-05-04'
p2914
aF40.0
aF40.0
aF39.700001
aF39.849998
aI27500
aF39.168536
aa(lp2915
S'2016-05-05'
p2916
aF39.990002
aF40.02
aF39.709999
aF39.75
aI24900
aF39.070248
aa(lp2917
S'2016-05-06'
p2918
aF39.599998
aF39.869999
aF39.490002
aF39.849998
aI26100
aF39.168536
aa(lp2919
S'2016-05-09'
p2920
aF39.889999
aF39.970001
aF39.799999
aF39.93
aI43400
aF39.24717
aa(lp2921
S'2016-05-10'
p2922
aF40.029999
aF40.290001
aF40.029999
aF40.290001
aI30700
aF39.601014
aa(lp2923
S'2016-05-11'
p2924
aF40.130001
aF40.200001
aF39.869999
aF39.869999
aI14500
aF39.188194
aa(lp2925
S'2016-05-12'
p2926
aF40.23
aF40.23
aF39.639999
aF39.84
aI24000
aF39.158709
aa(lp2927
S'2016-05-13'
p2928
aF39.669998
aF39.790001
aF39.349998
aF39.41
aI21100
aF38.736062
aa(lp2929
S'2016-05-16'
p2930
aF39.48
aF39.93
aF39.48
aF39.84
aI18000
aF39.158709
aa(lp2931
S'2016-05-17'
p2932
aF39.91
aF39.91
aF39.41
aF39.560001
aI58500
aF38.883498
aa(lp2933
S'2016-05-18'
p2934
aF39.330002
aF39.75
aF39.299999
aF39.450001
aI18600
aF38.775378
aa(lp2935
S'2016-05-19'
p2936
aF39.490002
aF39.529999
aF39.25
aF39.529999
aI21800
aF38.854008
aa(lp2937
S'2016-05-20'
p2938
aF39.599998
aF39.880001
aF39.599998
aF39.73
aI19100
aF39.050589
aa(lp2939
S'2016-05-23'
p2940
aF39.77
aF39.82
aF39.66
aF39.669998
aI13200
aF38.991614
aa(lp2941
S'2016-05-24'
p2942
aF40.029999
aF40.200001
aF39.919998
aF40.16
aI37800
aF39.473236
aa(lp2943
S'2016-05-25'
p2944
aF40.41
aF40.580002
aF40.34
aF40.580002
aI34700
aF39.886056
aa(lp2945
S'2016-05-26'
p2946
aF40.490002
aF40.720001
aF40.400002
aF40.400002
aI53400
aF39.709134
aa(lp2947
S'2016-05-27'
p2948
aF40.639999
aF40.689999
aF40.41
aF40.639999
aI26100
aF39.945027
aa(lp2949
S'2016-05-31'
p2950
aF40.869999
aF40.869999
aF40.490002
aF40.700001
aI34000
aF40.004003
aa(lp2951
S'2016-06-01'
p2952
aF40.43
aF40.790001
aF40.380001
aF40.77
aI110400
aF40.072805
aa(lp2953
S'2016-06-02'
p2954
aF40.540001
aF40.869999
aF40.540001
aF40.82
aI46700
aF40.121949
aa(lp2955
S'2016-06-03'
p2956
aF40.52
aF40.779999
aF40.439999
aF40.73
aI19300
aF40.033488
aa(lp2957
S'2016-06-06'
p2958
aF40.889999
aF41.009998
aF40.82
aF40.950001
aI21400
aF40.249727
aa(lp2959
S'2016-06-07'
p2960
aF41.119999
aF41.200001
aF40.889999
aF41.080002
aI226500
aF40.377505
aa(lp2961
S'2016-06-08'
p2962
aF41.029999
aF41.240002
aF41.029999
aF41.240002
aI33100
aF40.534769
aa(lp2963
S'2016-06-09'
p2964
aF40.950001
aF41.139999
aF40.919998
aF41.07
aI20700
aF40.367674
aa(lp2965
S'2016-06-10'
p2966
aF40.799999
aF40.889999
aF40.599998
aF40.720001
aI17800
aF40.023661
aa(lp2967
S'2016-06-13'
p2968
aF40.66
aF40.73
aF40.310001
aF40.330002
aI13100
aF39.640331
aa(lp2969
S'2016-06-14'
p2970
aF40.18
aF40.290001
aF39.970001
aF40.259998
aI99600
aF39.571524
aa(lp2971
S'2016-06-15'
p2972
aF40.23
aF40.540001
aF40.16
aF40.16
aI25800
aF39.473236
aa(lp2973
S'2016-06-16'
p2974
aF39.93
aF40.360001
aF39.77
aF40.349998
aI23200
aF39.659986
aa(lp2975
S'2016-06-17'
p2976
aF40.43
aF40.43
aF40.18
aF40.23
aI22100
aF39.542039
aa(lp2977
S'2016-06-20'
p2978
aF40.889999
aF40.889999
aF40.509998
aF40.57
aI38800
aF39.876225
aa(lp2979
S'2016-06-21'
p2980
aF40.77
aF40.77
aF40.5
aF40.66
aI29600
aF39.964686
aa(lp2981
S'2016-06-22'
p2982
aF40.610001
aF40.779999
aF40.540001
aF40.59
aI33100
aF39.895883
aa(lp2983
S'2016-06-23'
p2984
aF41.009998
aF41.119999
aF40.84
aF41.119999
aI13000
aF40.416819
aa(lp2985
S'2016-06-24'
p2986
aF39.869999
aF40.32
aF39.59
aF39.709999
aI181500
aF39.030931
aa(lp2987
S'2016-06-27'
p2988
aF39.290001
aF39.290001
aF38.689999
aF38.860001
aI47200
aF38.195468
aa(lp2989
S'2016-06-28'
p2990
aF39.209999
aF39.52
aF39.130001
aF39.48
aI31200
aF38.804864
aa(lp2991
S'2016-06-29'
p2992
aF39.959999
aF40.310001
aF39.889999
aF40.25
aI39100
aF39.561697
aa(lp2993
S'2016-06-30'
p2994
aF40.200001
aF40.759998
aF40.200001
aF40.759998
aI43100
aF40.062974
aa(lp2995
S'2016-07-01'
p2996
aF40.849998
aF40.990002
aF40.759998
aF40.869999
aI118900
aF40.171094
aa(lp2997
S'2016-07-05'
p2998
aF40.310001
aF40.389999
aF40.189999
aF40.349998
aI24500
aF39.814883
aa(lp2999
S'2016-07-06'
p3000
aF40.34
aF40.619999
aF40.07
aF40.59
aI19600
aF40.051701
aa(lp3001
S'2016-07-07'
p3002
aF40.75
aF40.869999
aF40.349998
aF40.5
aI30500
aF39.962895
aa(lp3003
S'2016-07-08'
p3004
aF40.889999
aF41.209999
aF40.889999
aF41.130001
aI16200
aF40.584541
aa(lp3005
S'2016-07-11'
p3006
aF41.290001
aF41.470001
aF41.200001
aF41.34
aI32200
aF40.791755
aa(lp3007
S'2016-07-12'
p3008
aF41.43
aF41.759998
aF41.43
aF41.720001
aI62900
aF41.166717
aa(lp3009
S'2016-07-13'
p3010
aF41.669998
aF41.790001
aF41.57
aF41.75
aI22800
aF41.196318
aa(lp3011
S'2016-07-14'
p3012
aF41.919998
aF42.049999
aF41.919998
aF42.0
aI15300
aF41.443002
aa(lp3013
S'2016-07-15'
p3014
aF42.029999
aF42.049999
aF41.82
aF41.900002
aI17600
aF41.34433
aa(lp3015
S'2016-07-18'
p3016
aF41.950001
aF42.080002
aF41.950001
aF42.02
aI16100
aF41.462737
aa(lp3017
S'2016-07-19'
p3018
aF41.849998
aF41.98
aF41.82
aF41.98
aI14800
aF41.423267
aa(lp3019
S'2016-07-20'
p3020
aF42.07
aF42.18
aF41.939999
aF42.110001
aI24400
aF41.551544
aa(lp3021
S'2016-07-21'
p3022
aF42.009998
aF42.18
aF41.880001
aF42.009998
aI125600
aF41.452868
aa(lp3023
S'2016-07-22'
p3024
aF41.939999
aF42.189999
aF41.939999
aF42.169998
aI10300
aF41.610746
aa(lp3025
S'2016-07-25'
p3026
aF42.139999
aF42.139999
aF41.91
aF42.029999
aI79500
aF41.472603
aa(lp3027
S'2016-07-26'
p3028
aF42.130001
aF42.150002
aF41.93
aF42.130001
aI14800
aF41.571279
aa(lp3029
S'2016-07-27'
p3030
aF42.119999
aF42.150002
aF41.93
aF41.990002
aI11300
aF41.433136
aa(lp3031
S'2016-07-28'
p3032
aF41.869999
aF41.98
aF41.740002
aF41.91
aI47200
aF41.354196
aa(lp3033
S'2016-07-29'
p3034
aF41.830002
aF42.02
aF41.709999
aF41.970001
aI36600
aF41.413401
aa(lp3035
S'2016-08-01'
p3036
aF41.849998
aF42.029999
aF41.75
aF41.799999
aI37200
aF41.245654
aa(lp3037
S'2016-08-02'
p3038
aF41.740002
aF41.740002
aF41.330002
aF41.529999
aI64600
aF40.979234
aa(lp3039
S'2016-08-03'
p3040
aF41.439999
aF41.790001
aF41.439999
aF41.790001
aI15000
aF41.235788
aa(lp3041
S'2016-08-04'
p3042
aF41.790001
aF41.810001
aF41.650002
aF41.689999
aI36800
aF41.137112
aa(lp3043
S'2016-08-05'
p3044
aF41.950001
aF42.16
aF41.950001
aF42.09
aI20000
aF41.531809
aa(lp3045
S'2016-08-08'
p3046
aF42.209999
aF42.209999
aF42.060001
aF42.09
aI14400
aF41.531809
aa(lp3047
S'2016-08-09'
p3048
aF42.150002
aF42.240002
aF42.049999
aF42.060001
aI16700
aF41.502208
aa(lp3049
S'2016-08-10'
p3050
aF42.16
aF42.18
aF41.98
aF41.990002
aI19900
aF41.433136
aa(lp3051
S'2016-08-11'
p3052
aF42.119999
aF42.349998
aF42.119999
aF42.299999
aI17900
aF41.739023
aa(lp3053
S'2016-08-12'
p3054
aF42.169998
aF42.299999
aF42.169998
aF42.27
aI12200
aF41.709422
aa(lp3055
S'2016-08-15'
p3056
aF42.279999
aF42.5
aF42.279999
aF42.439999
aI22400
aF41.877166
aa(lp3057
S'2016-08-16'
p3058
aF42.43
aF42.43
aF42.18
aF42.23
aI42600
aF41.669951
aa(lp3059
S'2016-08-17'
p3060
aF42.200001
aF42.23
aF41.990002
aF42.220001
aI41700
aF41.660086
aa(lp3061
S'2016-08-18'
p3062
aF42.220001
aF42.389999
aF42.220001
aF42.369999
aI27400
aF41.808094
aa(lp3063
S'2016-08-19'
p3064
aF42.189999
aF42.299999
aF42.139999
aF42.279999
aI30900
aF41.719288
aa(lp3065
S'2016-08-22'
p3066
aF42.27
aF42.27
aF42.119999
aF42.240002
aI27600
aF41.679821
aa(lp3067
S'2016-08-23'
p3068
aF42.459999
aF42.5
aF42.330002
aF42.330002
aI20900
aF41.768627
aa(lp3069
S'2016-08-24'
p3070
aF42.389999
aF42.389999
aF42.119999
aF42.119999
aI29000
aF41.56141
aa(lp3071
S'2016-08-25'
p3072
aF42.060001
aF42.130001
aF41.950001
aF41.990002
aI23700
aF41.433136
aa(lp3073
S'2016-08-26'
p3074
aF42.02
aF42.220001
aF41.700001
aF41.889999
aI13900
aF41.33446
aa(lp3075
S'2016-08-29'
p3076
aF41.84
aF42.16
aF41.84
aF42.099998
aI33100
aF41.541674
aa(lp3077
S'2016-08-30'
p3078
aF42.0
aF42.16
aF41.950001
aF42.080002
aI32600
aF41.521943
aa(lp3079
S'2016-08-31'
p3080
aF42.07
aF42.07
aF41.779999
aF41.98
aI16900
aF41.423267
aa(lp3081
S'2016-09-01'
p3082
aF42.060001
aF42.060001
aF41.669998
aF41.939999
aI14500
aF41.383796
aa(lp3083
S'2016-09-02'
p3084
aF42.139999
aF42.18
aF42.040001
aF42.150002
aI47000
aF41.591014
aa(lp3085
S'2016-09-06'
p3086
aF42.259998
aF42.259998
aF41.98
aF42.18
aI17400
aF41.620615
aa(lp3087
S'2016-09-07'
p3088
aF42.189999
aF42.299999
aF42.09
aF42.200001
aI19900
aF41.64035
aa(lp3089
S'2016-09-08'
p3090
aF42.23
aF42.240002
aF42.09
aF42.09
aI97700
aF41.531809
aa(lp3091
S'2016-09-09'
p3092
aF41.91
aF41.91
aF41.169998
aF41.169998
aI28600
aF40.624008
aa(lp3093
S'2016-09-12'
p3094
aF41.0
aF41.82
aF40.93
aF41.75
aI27400
aF41.196318
aa(lp3095
S'2016-09-13'
p3096
aF41.52
aF41.52
aF41.0
aF41.130001
aI26500
aF40.584541
aa(lp3097
S'2016-09-14'
p3098
aF41.189999
aF41.310001
aF40.950001
aF40.990002
aI12800
aF40.446398
aa(lp3099
S'2016-09-15'
p3100
aF41.009998
aF41.490002
aF41.009998
aF41.419998
aI14100
aF40.870692
aa(lp3101
S'2016-09-16'
p3102
aF41.279999
aF41.349998
aF41.119999
aF41.299999
aI29600
aF40.752285
aa(lp3103
S'2016-09-19'
p3104
aF41.580002
aF41.599998
aF41.240002
aF41.27
aI78900
aF40.722684
aa(lp3105
S'2016-09-20'
p3106
aF41.630001
aF41.630001
aF41.240002
aF41.259998
aI48000
aF40.712814
aa(lp3107
S'2016-09-21'
p3108
aF41.52
aF41.709999
aF41.259998
aF41.689999
aI37800
aF41.137112
aa(lp3109
S'2016-09-22'
p3110
aF41.830002
aF42.0
aF41.830002
aF41.93
aI56500
aF41.373931
aa(lp3111
S'2016-09-23'
p3112
aF41.900002
aF41.919998
aF41.73
aF41.779999
aI47300
aF41.225919
aa(lp3113
S'2016-09-26'
p3114
aF41.5
aF41.560001
aF41.349998
aF41.349998
aI26200
aF40.801621
aa(lp3115
S'2016-09-27'
p3116
aF41.439999
aF41.619999
aF41.310001
aF41.599998
aI64600
aF41.048305
aa(lp3117
S'2016-09-28'
p3118
aF41.68
aF41.82
aF41.43
aF41.75
aI28300
aF41.196318
aa(lp3119
S'2016-09-29'
p3120
aF41.689999
aF41.830002
aF41.290001
aF41.369999
aI21600
aF40.821356
aa(lp3121
S'2016-09-30'
p3122
aF41.77
aF41.900002
aF41.560001
aF41.779999
aI36700
aF41.225919
aa(lp3123
S'2016-10-03'
p3124
aF41.599998
aF41.66
aF41.5
aF41.630001
aI46100
aF41.07791
aa(lp3125
S'2016-10-04'
p3126
aF41.389999
aF41.59
aF41.130001
aF41.220001
aI43300
aF40.864762
aa(lp3127
S'2016-10-05'
p3128
aF41.380001
aF41.57
aF41.380001
aF41.41
aI72800
aF41.053124
aa(lp3129
S'2016-10-06'
p3130
aF41.389999
aF41.52
aF41.25
aF41.470001
aI50900
aF41.112608
aa(lp3131
S'2016-10-07'
p3132
aF41.52
aF41.52
aF41.049999
aF41.279999
aI21000
aF40.924243
aa(lp3133
S'2016-10-10'
p3134
aF41.470001
aF41.560001
aF41.43
aF41.450001
aI28100
aF41.09278
aa(lp3135
S'2016-10-11'
p3136
aF41.52
aF41.52
aF40.849998
aF41.0
aI33500
aF40.646657
aa(lp3137
S'2016-10-12'
p3138
aF41.16
aF41.169998
aF40.900002
aF41.080002
aI46100
aF40.72597
aa(lp3139
S'2016-10-13'
p3140
aF40.77
aF41.07
aF40.599998
aF40.93
aI55300
aF40.577261
aa(lp3141
S'2016-10-14'
p3142
aF41.290001
aF41.290001
aF40.959999
aF41.009998
aI372800
aF40.656569
aa(lp3143
S'2016-10-17'
p3144
aF40.860001
aF40.970001
aF40.740002
aF40.75
aI67000
aF40.398812
aa(lp3145
S'2016-10-18'
p3146
aF41.009998
aF41.150002
aF40.98
aF41.080002
aI34100
aF40.72597
aa(lp3147
S'2016-10-19'
p3148
aF41.299999
aF41.299999
aF41.040001
aF41.189999
aI57500
aF40.835018
aa(lp3149
S'2016-10-20'
p3150
aF41.330002
aF41.330002
aF41.0
aF41.150002
aI31000
aF40.795366
aa(lp3151
S'2016-10-21'
p3152
aF41.07
aF41.130001
aF40.849998
aF41.110001
aI40700
aF40.75571
aa(lp3153
S'2016-10-24'
p3154
aF41.400002
aF41.400002
aF41.23
aF41.32
aI31000
aF40.963899
aa(lp3155
S'2016-10-25'
p3156
aF41.380001
aF41.380001
aF41.049999
aF41.07
aI57800
aF40.716054
aa(lp3157
S'2016-10-26'
p3158
aF41.099998
aF41.200001
aF40.950001
aF41.119999
aI16500
aF40.765622
aa(lp3159
S'2016-10-27'
p3160
aF41.389999
aF41.389999
aF40.970001
aF40.990002
aI32700
aF40.636745
aa(lp3161
S'2016-10-28'
p3162
aF41.0
aF41.0
aF40.439999
aF40.639999
aI41100
aF40.289759
aa(lp3163
S'2016-10-31'
p3164
aF40.740002
aF40.810001
aF40.709999
aF40.740002
aI22800
aF40.3889
aa(lp3165
S'2016-11-01'
p3166
aF40.93
aF40.93
aF40.220001
aF40.400002
aI37700
aF40.05183
aa(lp3167
S'2016-11-02'
p3168
aF40.369999
aF40.5
aF40.279999
aF40.330002
aI69200
aF39.982433
aa(lp3169
S'2016-11-03'
p3170
aF40.549999
aF40.549999
aF40.0
aF40.080002
aI70300
aF39.734588
aa(lp3171
S'2016-11-04'
p3172
aF40.32
aF40.349998
aF40.060001
aF40.07
aI41600
aF39.724672
aa(lp3173
S'2016-11-07'
p3174
aF40.759998
aF40.959999
aF40.540001
aF40.959999
aI78500
aF40.607001
aa(lp3175
S'2016-11-08'
p3176
aF40.919998
aF41.09
aF40.599998
aF40.959999
aI41800
aF40.607001
aa(lp3177
S'2016-11-09'
p3178
aF40.610001
aF41.82
aF40.610001
aF41.66
aI188100
aF41.300969
aa(lp3179
S'2016-11-10'
p3180
aF42.0
aF42.279999
aF41.790001
aF42.130001
aI46800
aF41.76692
aa(lp3181
S'2016-11-11'
p3182
aF41.990002
aF42.119999
aF41.830002
aF42.009998
aI226900
aF41.647951
aa(lp3183
S'2016-11-14'
p3184
aF42.209999
aF42.419998
aF42.200001
aF42.369999
aI102800
aF42.004849
aa(lp3185
S'2016-11-15'
p3186
aF42.450001
aF42.59
aF42.27
aF42.560001
aI488800
aF42.193214
aa(lp3187
S'2016-11-16'
p3188
aF42.709999
aF42.709999
aF42.380001
aF42.48
aI95600
aF42.113902
aa(lp3189
S'2016-11-17'
p3190
aF42.400002
aF42.669998
aF42.400002
aF42.650002
aI102000
aF42.282439
aa(lp3191
S'2016-11-18'
p3192
aF42.669998
aF42.669998
aF42.48
aF42.57
aI100000
aF42.203126
aa(lp3193
S'2016-11-21'
p3194
aF42.709999
aF42.82
aF42.639999
aF42.810001
aI95900
aF42.44106
aa(lp3195
S'2016-11-22'
p3196
aF43.009998
aF43.040001
aF42.860001
aF43.009998
aI104500
aF42.639333
aa(lp3197
S'2016-11-23'
p3198
aF43.02
aF43.130001
aF42.939999
aF43.110001
aI90800
aF42.738474
aa(lp3199
S'2016-11-25'
p3200
aF43.330002
aF43.330002
aF43.18
aF43.25
aI32600
aF42.877266
aa(lp3201
S'2016-11-28'
p3202
aF43.200001
aF43.23
aF43.049999
aF43.07
aI45600
aF42.698817
aa(lp3203
S'2016-11-29'
p3204
aF43.240002
aF43.240002
aF43.029999
aF43.110001
aI456800
aF42.738474
aa(lp3205
S'2016-11-30'
p3206
aF43.43
aF43.43
aF43.099998
aF43.099998
aI97700
aF42.728558
aa(lp3207
S'2016-12-01'
p3208
aF43.07
aF43.349998
aF43.07
aF43.209999
aI109000
aF42.83761
aa(lp3209
S'2016-12-02'
p3210
aF43.439999
aF43.439999
aF43.119999
aF43.189999
aI51900
aF42.817782
aa(lp3211
S'2016-12-05'
p3212
aF43.52
aF43.52
aF43.23
aF43.330002
aI144600
aF42.956579
aa(lp3213
S'2016-12-06'
p3214
aF43.52
aF43.52
aF43.240002
aF43.5
aI56500
aF43.125112
aa(lp3215
S'2016-12-07'
p3216
aF43.669998
aF44.139999
aF43.5
aF44.139999
aI64400
aF43.759596
aa(lp3217
S'2016-12-08'
p3218
aF44.080002
aF44.32
aF44.07
aF44.189999
aI63000
aF43.809164
aa(lp3219
S'2016-12-09'
p3220
aF44.439999
aF44.450001
aF44.23
aF44.450001
aI50300
aF44.066925
aa(lp3221
S'2016-12-12'
p3222
aF44.599998
aF44.599998
aF44.290001
aF44.360001
aI135300
aF43.977701
aa(lp3223
S'2016-12-13'
p3224
aF44.650002
aF44.700001
aF44.43
aF44.57
aI55700
aF44.18589
aa(lp3225
S'2016-12-14'
p3226
aF44.59
aF44.59
aF44.099998
aF44.130001
aI56600
aF43.749684
aa(lp3227
S'2016-12-15'
p3228
aF44.189999
aF44.509998
aF44.189999
aF44.310001
aI156600
aF43.928133
aa(lp3229
S'2016-12-16'
p3230
aF44.369999
aF44.740002
aF44.139999
aF44.209999
aI133400
aF43.828992
aa(lp3231
S'2016-12-19'
p3232
aF44.470001
aF44.470001
aF44.240002
aF44.32
aI84400
aF43.938045
aa(lp3233
S'2016-12-20'
p3234
aF44.34
aF44.560001
aF44.34
aF44.48
aI64000
aF44.096666
aa(lp3235
S'2016-12-21'
p3236
aF44.610001
aF44.610001
aF44.369999
aF44.369999
aI81300
aF43.987613
aa(lp3237
S'2016-12-22'
p3238
aF44.450001
aF44.450001
aF44.07
aF44.16
aI57300
aF43.779424
aa(lp3239
S'2016-12-23'
p3240
aF44.23
aF44.23
aF44.150002
aF44.209999
aI34900
aF43.828992
aa(lp3241
S'2016-12-27'
p3242
aF44.360001
aF44.41
aF44.299999
aF44.299999
aI38400
aF43.918217
aa(lp3243
S'2016-12-28'
p3244
aF44.299999
aF44.299999
aF43.740002
aF43.75
aI43700
aF43.573612
aa(lp3245
S'2016-12-29'
p3246
aF43.82
aF43.84
aF43.639999
aF43.73
aI40800
aF43.553693
aa(lp3247
S'2016-12-30'
p3248
aF43.93
aF43.93
aF43.400002
aF43.450001
aI37400
aF43.274823
aa(lp3249
S'2017-01-03'
p3250
aF43.84
aF43.98
aF43.669998
aF43.939999
aI141200
aF43.762845
aa(lp3251
S'2017-01-04'
p3252
aF44.18
aF44.330002
aF44.07
aF44.290001
aI94400
aF44.111436
aa(lp3253
S'2017-01-05'
p3254
aF44.259998
aF44.259998
aF43.970001
aF44.130001
aI87400
aF43.952081
aa(lp3255
S'2017-01-06'
p3256
aF44.290001
aF44.290001
aF44.02
aF44.18
aI125200
aF44.001879
aa(lp3257
S'2017-01-09'
p3258
aF44.299999
aF44.299999
aF43.98
aF44.009998
aI58300
aF43.832562
aa(lp3259
S'2017-01-10'
p3260
aF44.02
aF44.290001
aF43.959999
aF44.080002
aI175500
aF43.902284
aa(lp3261
S'2017-01-11'
p3262
aF44.029999
aF44.18
aF43.880001
aF44.139999
aI79300
aF43.962039
aa(lp3263
S'2017-01-12'
p3264
aF44.139999
aF44.139999
aF43.77
aF44.09
aI64100
aF43.912242
aa(lp3265
S'2017-01-13'
p3266
aF44.189999
aF44.220001
aF44.07
aF44.139999
aI58600
aF43.962039
aa(lp3267
S'2017-01-17'
p3268
aF43.950001
aF44.23
aF43.950001
aF44.110001
aI52000
aF43.932162
aa(lp3269
S'2017-01-18'
p3270
aF44.330002
aF44.330002
aF44.029999
aF44.16
aI76000
aF43.981959
aa(lp3271
S'2017-01-19'
p3272
aF44.169998
aF44.209999
aF43.889999
aF43.970001
aI54900
aF43.792727
aa(lp3273
S'2017-01-20'
p3274
aF44.169998
aF44.209999
aF43.939999
aF44.049999
aI52000
aF43.872402
aa(lp3275
S'2017-01-23'
p3276
aF44.060001
aF44.060001
aF43.779999
aF43.91
aI76400
aF43.732967
aa(lp3277
S'2017-01-24'
p3278
aF43.990002
aF44.34
aF43.950001
aF44.240002
aI70500
aF44.061638
aa(lp3279
S'2017-01-25'
p3280
aF44.450001
aF44.610001
aF44.43
aF44.580002
aI58600
aF44.400268
aa(lp3281
S'2017-01-26'
p3282
aF44.580002
aF44.580002
aF44.389999
aF44.400002
aI68500
aF44.220993
aa(lp3283
S'2017-01-27'
p3284
aF44.529999
aF44.529999
aF44.169998
aF44.220001
aI70000
aF44.041719
aa(lp3285
S'2017-01-30'
p3286
aF44.080002
aF44.099998
aF43.799999
aF44.099998
aI62400
aF43.9222
aa(lp3287
S'2017-01-31'
p3288
aF44.049999
aF44.119999
aF43.82
aF44.099998
aI82500
aF43.9222
aa(lp3289
S'2017-02-01'
p3290
aF44.169998
aF44.299999
aF43.939999
aF44.049999
aI96000
aF43.872402
aa(lp3291
S'2017-02-02'
p3292
aF44.139999
aF44.139999
aF43.93
aF44.02
aI79100
aF43.842524
aa(lp3293
S'2017-02-03'
p3294
aF44.189999
aF44.360001
aF44.119999
aF44.259998
aI45000
aF44.081554
aa(lp3295
S'2017-02-06'
p3296
aF44.169998
aF44.360001
aF44.139999
aF44.200001
aI68000
aF44.021799
aa(lp3297
S'2017-02-07'
p3298
aF44.330002
aF44.389999
aF44.150002
aF44.25
aI134500
aF44.071596
aa(lp3299
S'2017-02-08'
p3300
aF44.369999
aF44.369999
aF44.139999
aF44.349998
aI52800
aF44.171192
aa(lp3301
S'2017-02-09'
p3302
aF44.400002
aF44.73
aF44.389999
aF44.669998
aI33400
aF44.489901
aa(lp3303
S'2017-02-10'
p3304
aF44.790001
aF44.869999
aF44.66
aF44.790001
aI44600
aF44.60942
aa(lp3305
S'2017-02-13'
p3306
aF44.900002
aF45.119999
aF44.900002
aF45.02
aI50500
aF44.838493
aa(lp3307
S'2017-02-14'
p3308
aF44.919998
aF45.299999
aF44.919998
aF45.25
aI42400
aF45.067565
aa(lp3309
S'2017-02-15'
p3310
aF45.380001
aF45.540001
aF45.25
aF45.490002
aI105900
aF45.306599
aa(lp3311
S'2017-02-16'
p3312
aF45.529999
aF45.599998
aF45.32
aF45.43
aI61800
aF45.246839
aa(lp3313
S'2017-02-17'
p3314
aF45.25
aF45.5
aF45.25
aF45.5
aI62000
aF45.316557
aa(lp3315
S'2017-02-21'
p3316
aF45.740002
aF45.919998
aF45.700001
aF45.869999
aI47500
aF45.685064
aa(lp3317
S'2017-02-22'
p3318
aF45.889999
aF45.889999
aF45.720001
aF45.830002
aI52400
aF45.645228
aa(lp3319
S'2017-02-23'
p3320
aF45.939999
aF45.950001
aF45.73
aF45.75
aI50700
aF45.565549
aa(lp3321
S'2017-02-24'
p3322
aF45.689999
aF45.880001
aF45.59
aF45.880001
aI46400
aF45.695026
aa(lp3323
S'2017-02-27'
p3324
aF45.830002
aF45.990002
aF45.82
aF45.950001
aI34900
aF45.764743
aa(lp3325
S'2017-02-28'
p3326
aF45.869999
aF45.869999
aF45.669998
aF45.759998
aI69400
aF45.575507
aa(lp3327
S'2017-03-01'
p3328
aF46.290001
aF46.43
aF46.130001
aF46.299999
aI54200
aF46.113331
aa(lp3329
S'2017-03-02'
p3330
aF46.400002
aF46.400002
aF46.060001
aF46.09
aI76100
aF45.904178
aa(lp3331
S'2017-03-03'
p3332
aF46.07
aF46.139999
aF45.91
aF46.060001
aI46200
aF45.8743
aa(lp3333
S'2017-03-06'
p3334
aF45.880001
aF45.900002
aF45.720001
aF45.860001
aI126800
aF45.675106
aa(lp3335
S'2017-03-07'
p3336
aF45.759998
aF45.810001
aF45.599998
aF45.630001
aI71900
aF45.446034
aa(lp3337
S'2017-03-08'
p3338
aF45.779999
aF45.779999
aF45.549999
aF45.610001
aI58000
aF45.426114
aa(lp3339
S'2017-03-09'
p3340
aF45.689999
aF45.689999
aF45.450001
aF45.619999
aI64900
aF45.436072
aa(lp3341
S'2017-03-10'
p3342
aF45.700001
aF45.810001
aF45.529999
aF45.709999
aI47400
aF45.525709
aa(lp3343
S'2017-03-13'
p3344
aF45.75
aF45.830002
aF45.639999
aF45.689999
aI35500
aF45.505789
aa(lp3345
S'2017-03-14'
p3346
aF45.610001
aF45.700001
aF45.459999
aF45.599998
aI34200
aF45.416152
aa(lp3347
S'2017-03-15'
p3348
aF45.84
aF46.07
aF45.66
aF46.0
aI96900
aF45.814541
aa(lp3349
S'2017-03-16'
p3350
aF46.049999
aF46.049999
aF45.799999
aF45.919998
aI130800
aF45.734862
aa(lp3351
S'2017-03-17'
p3352
aF46.02
aF46.02
aF45.790001
aF45.84
aI48000
aF45.655186
aa(lp3353
S'2017-03-20'
p3354
aF45.880001
aF45.880001
aF45.560001
aF45.650002
aI43900
aF45.465954
aa(lp3355
S'2017-03-21'
p3356
aF45.880001
aF45.880001
aF45.029999
aF45.080002
aI52200
aF44.898252
aa(lp3357
S'2017-03-22'
p3358
aF45.049999
aF45.189999
aF44.900002
aF45.150002
aI59600
aF44.967969
aa(lp3359
S'2017-03-23'
p3360
aF45.240002
aF45.330002
aF44.959999
aF45.060001
aI55400
aF44.878332
aa(lp3361
S'2017-03-24'
p3362
aF45.259998
aF45.259998
aF44.900002
aF45.029999
aI53700
aF44.848451
aa(lp3363
S'2017-03-27'
p3364
aF44.650002
aF45.02
aF44.650002
aF44.970001
aI36100
aF44.788695
aa(lp3365
S'2017-03-28'
p3366
aF45.099998
aF45.43
aF44.93
aF45.34
aI81500
aF45.157202
aa(lp3367
S'2017-03-29'
p3368
aF45.369999
aF45.52
aF45.27
aF45.41
aI61100
aF45.22692
aa(lp3369
S'2017-03-30'
p3370
aF45.459999
aF45.669998
aF45.43
aF45.59
aI45900
aF45.406194
aa(lp3371
S'2017-03-31'
p3372
aF45.43
aF45.66
aF45.43
aF45.5
aI58900
aF45.316557
aa(lp3373
S'2017-04-03'
p3374
aF45.740002
aF45.740002
aF45.130001
aF45.389999
aI94900
aF45.207
aa(lp3375
S'2017-04-04'
p3376
aF45.130001
aF45.200001
aF45.029999
aF45.169998
aI92100
aF45.169998
aa(lp3377
S'2017-04-05'
p3378
aF45.360001
aF45.52
aF44.93
aF45.009998
aI36100
aF45.009998
aa(lp3379
S'2017-04-06'
p3380
aF45.060001
aF45.290001
aF44.970001
aF45.18
aI75300
aF45.18
aa(lp3381
S'2017-04-07'
p3382
aF45.150002
aF45.32
aF45.080002
aF45.200001
aI80900
aF45.200001
aa(lp3383
S'2017-04-10'
p3384
aF45.220001
aF45.439999
aF45.189999
aF45.27
aI34800
aF45.27
aa(lp3385
S'2017-04-11'
p3386
aF45.209999
aF45.240002
aF44.959999
aF45.240002
aI48800
aF45.240002
aa(lp3387
S'2017-04-12'
p3388
aF45.209999
aF45.209999
aF44.98
aF45.049999
aI76900
aF45.049999
aa(lp3389
S'2017-04-13'
p3390
aF44.990002
aF45.07
aF44.720001
aF44.720001
aI62000
aF44.720001
aa(lp3391
S'2017-04-17'
p3392
aF44.919998
aF45.07
aF44.740002
aF45.049999
aI83100
aF45.049999
aa(lp3393
S'2017-04-18'
p3394
aF44.830002
aF44.959999
aF44.650002
aF44.860001
aI65200
aF44.860001
aa(lp3395
S'2017-04-19'
p3396
aF44.959999
aF45.029999
aF44.740002
aF44.779999
aI43900
aF44.779999
aa(lp3397
S'2017-04-20'
p3398
aF44.93
aF45.32
aF44.889999
aF45.220001
aI95200
aF45.220001
aa(lp3399
S'2017-04-21'
p3400
aF45.130001
aF45.189999
aF44.939999
aF45.060001
aI53300
aF45.060001
aa(lp3401
S'2017-04-24'
p3402
aF45.490002
aF45.560001
aF45.369999
aF45.48
aI36000
aF45.48
aa(lp3403
S'2017-04-25'
p3404
aF45.630001
aF45.75
aF45.5
aF45.689999
aI314900
aF45.689999
aa(lp3405
S'2017-04-26'
p3406
aF45.610001
aF45.950001
aF45.610001
aF45.75
aI72300
aF45.75
aa(lp3407
S'2017-04-27'
p3408
aF45.779999
aF45.84
aF45.639999
aF45.759998
aI119500
aF45.759998
aa(lp3409
S'2017-04-28'
p3410
aF45.759998
aF45.759998
aF45.59
aF45.610001
aI49400
aF45.610001
aa(lp3411
S'2017-05-01'
p3412
aF45.75
aF45.77
aF45.59
aF45.59
aI74900
aF45.59
aa(lp3413
S'2017-05-02'
p3414
aF45.650002
aF45.650002
aF45.459999
aF45.610001
aI61400
aF45.610001
aa(lp3415
S'2017-05-03'
p3416
aF45.509998
aF45.630001
aF45.419998
aF45.599998
aI39400
aF45.599998
aaaa.